
rtarget:     file format elf64-x86-64


Disassembly of section .init:

0000000000400c08 <_init>:
  400c08:	48 83 ec 08          	sub    $0x8,%rsp
  400c0c:	e8 5b 02 00 00       	callq  400e6c <call_gmon_start>
  400c11:	48 83 c4 08          	add    $0x8,%rsp
  400c15:	c3                   	retq   

Disassembly of section .plt:

0000000000400c20 <.plt>:
  400c20:	ff 35 ca 43 20 00    	pushq  0x2043ca(%rip)        # 604ff0 <_GLOBAL_OFFSET_TABLE_+0x8>
  400c26:	ff 25 cc 43 20 00    	jmpq   *0x2043cc(%rip)        # 604ff8 <_GLOBAL_OFFSET_TABLE_+0x10>
  400c2c:	0f 1f 40 00          	nopl   0x0(%rax)

0000000000400c30 <__errno_location@plt>:
  400c30:	ff 25 ca 43 20 00    	jmpq   *0x2043ca(%rip)        # 605000 <__errno_location@GLIBC_2.2.5>
  400c36:	68 00 00 00 00       	pushq  $0x0
  400c3b:	e9 e0 ff ff ff       	jmpq   400c20 <.plt>

0000000000400c40 <srandom@plt>:
  400c40:	ff 25 c2 43 20 00    	jmpq   *0x2043c2(%rip)        # 605008 <srandom@GLIBC_2.2.5>
  400c46:	68 01 00 00 00       	pushq  $0x1
  400c4b:	e9 d0 ff ff ff       	jmpq   400c20 <.plt>

0000000000400c50 <strncmp@plt>:
  400c50:	ff 25 ba 43 20 00    	jmpq   *0x2043ba(%rip)        # 605010 <strncmp@GLIBC_2.2.5>
  400c56:	68 02 00 00 00       	pushq  $0x2
  400c5b:	e9 c0 ff ff ff       	jmpq   400c20 <.plt>

0000000000400c60 <strcpy@plt>:
  400c60:	ff 25 b2 43 20 00    	jmpq   *0x2043b2(%rip)        # 605018 <strcpy@GLIBC_2.2.5>
  400c66:	68 03 00 00 00       	pushq  $0x3
  400c6b:	e9 b0 ff ff ff       	jmpq   400c20 <.plt>

0000000000400c70 <puts@plt>:
  400c70:	ff 25 aa 43 20 00    	jmpq   *0x2043aa(%rip)        # 605020 <puts@GLIBC_2.2.5>
  400c76:	68 04 00 00 00       	pushq  $0x4
  400c7b:	e9 a0 ff ff ff       	jmpq   400c20 <.plt>

0000000000400c80 <write@plt>:
  400c80:	ff 25 a2 43 20 00    	jmpq   *0x2043a2(%rip)        # 605028 <write@GLIBC_2.2.5>
  400c86:	68 05 00 00 00       	pushq  $0x5
  400c8b:	e9 90 ff ff ff       	jmpq   400c20 <.plt>

0000000000400c90 <__stack_chk_fail@plt>:
  400c90:	ff 25 9a 43 20 00    	jmpq   *0x20439a(%rip)        # 605030 <__stack_chk_fail@GLIBC_2.4>
  400c96:	68 06 00 00 00       	pushq  $0x6
  400c9b:	e9 80 ff ff ff       	jmpq   400c20 <.plt>

0000000000400ca0 <mmap@plt>:
  400ca0:	ff 25 92 43 20 00    	jmpq   *0x204392(%rip)        # 605038 <mmap@GLIBC_2.2.5>
  400ca6:	68 07 00 00 00       	pushq  $0x7
  400cab:	e9 70 ff ff ff       	jmpq   400c20 <.plt>

0000000000400cb0 <memset@plt>:
  400cb0:	ff 25 8a 43 20 00    	jmpq   *0x20438a(%rip)        # 605040 <memset@GLIBC_2.2.5>
  400cb6:	68 08 00 00 00       	pushq  $0x8
  400cbb:	e9 60 ff ff ff       	jmpq   400c20 <.plt>

0000000000400cc0 <alarm@plt>:
  400cc0:	ff 25 82 43 20 00    	jmpq   *0x204382(%rip)        # 605048 <alarm@GLIBC_2.2.5>
  400cc6:	68 09 00 00 00       	pushq  $0x9
  400ccb:	e9 50 ff ff ff       	jmpq   400c20 <.plt>

0000000000400cd0 <close@plt>:
  400cd0:	ff 25 7a 43 20 00    	jmpq   *0x20437a(%rip)        # 605050 <close@GLIBC_2.2.5>
  400cd6:	68 0a 00 00 00       	pushq  $0xa
  400cdb:	e9 40 ff ff ff       	jmpq   400c20 <.plt>

0000000000400ce0 <read@plt>:
  400ce0:	ff 25 72 43 20 00    	jmpq   *0x204372(%rip)        # 605058 <read@GLIBC_2.2.5>
  400ce6:	68 0b 00 00 00       	pushq  $0xb
  400ceb:	e9 30 ff ff ff       	jmpq   400c20 <.plt>

0000000000400cf0 <__libc_start_main@plt>:
  400cf0:	ff 25 6a 43 20 00    	jmpq   *0x20436a(%rip)        # 605060 <__libc_start_main@GLIBC_2.2.5>
  400cf6:	68 0c 00 00 00       	pushq  $0xc
  400cfb:	e9 20 ff ff ff       	jmpq   400c20 <.plt>

0000000000400d00 <signal@plt>:
  400d00:	ff 25 62 43 20 00    	jmpq   *0x204362(%rip)        # 605068 <signal@GLIBC_2.2.5>
  400d06:	68 0d 00 00 00       	pushq  $0xd
  400d0b:	e9 10 ff ff ff       	jmpq   400c20 <.plt>

0000000000400d10 <gethostbyname@plt>:
  400d10:	ff 25 5a 43 20 00    	jmpq   *0x20435a(%rip)        # 605070 <gethostbyname@GLIBC_2.2.5>
  400d16:	68 0e 00 00 00       	pushq  $0xe
  400d1b:	e9 00 ff ff ff       	jmpq   400c20 <.plt>

0000000000400d20 <__memmove_chk@plt>:
  400d20:	ff 25 52 43 20 00    	jmpq   *0x204352(%rip)        # 605078 <__memmove_chk@GLIBC_2.3.4>
  400d26:	68 0f 00 00 00       	pushq  $0xf
  400d2b:	e9 f0 fe ff ff       	jmpq   400c20 <.plt>

0000000000400d30 <strtol@plt>:
  400d30:	ff 25 4a 43 20 00    	jmpq   *0x20434a(%rip)        # 605080 <strtol@GLIBC_2.2.5>
  400d36:	68 10 00 00 00       	pushq  $0x10
  400d3b:	e9 e0 fe ff ff       	jmpq   400c20 <.plt>

0000000000400d40 <memcpy@plt>:
  400d40:	ff 25 42 43 20 00    	jmpq   *0x204342(%rip)        # 605088 <memcpy@GLIBC_2.14>
  400d46:	68 11 00 00 00       	pushq  $0x11
  400d4b:	e9 d0 fe ff ff       	jmpq   400c20 <.plt>

0000000000400d50 <time@plt>:
  400d50:	ff 25 3a 43 20 00    	jmpq   *0x20433a(%rip)        # 605090 <time@GLIBC_2.2.5>
  400d56:	68 12 00 00 00       	pushq  $0x12
  400d5b:	e9 c0 fe ff ff       	jmpq   400c20 <.plt>

0000000000400d60 <random@plt>:
  400d60:	ff 25 32 43 20 00    	jmpq   *0x204332(%rip)        # 605098 <random@GLIBC_2.2.5>
  400d66:	68 13 00 00 00       	pushq  $0x13
  400d6b:	e9 b0 fe ff ff       	jmpq   400c20 <.plt>

0000000000400d70 <_IO_getc@plt>:
  400d70:	ff 25 2a 43 20 00    	jmpq   *0x20432a(%rip)        # 6050a0 <_IO_getc@GLIBC_2.2.5>
  400d76:	68 14 00 00 00       	pushq  $0x14
  400d7b:	e9 a0 fe ff ff       	jmpq   400c20 <.plt>

0000000000400d80 <__isoc99_sscanf@plt>:
  400d80:	ff 25 22 43 20 00    	jmpq   *0x204322(%rip)        # 6050a8 <__isoc99_sscanf@GLIBC_2.7>
  400d86:	68 15 00 00 00       	pushq  $0x15
  400d8b:	e9 90 fe ff ff       	jmpq   400c20 <.plt>

0000000000400d90 <munmap@plt>:
  400d90:	ff 25 1a 43 20 00    	jmpq   *0x20431a(%rip)        # 6050b0 <munmap@GLIBC_2.2.5>
  400d96:	68 16 00 00 00       	pushq  $0x16
  400d9b:	e9 80 fe ff ff       	jmpq   400c20 <.plt>

0000000000400da0 <__printf_chk@plt>:
  400da0:	ff 25 12 43 20 00    	jmpq   *0x204312(%rip)        # 6050b8 <__printf_chk@GLIBC_2.3.4>
  400da6:	68 17 00 00 00       	pushq  $0x17
  400dab:	e9 70 fe ff ff       	jmpq   400c20 <.plt>

0000000000400db0 <fopen@plt>:
  400db0:	ff 25 0a 43 20 00    	jmpq   *0x20430a(%rip)        # 6050c0 <fopen@GLIBC_2.2.5>
  400db6:	68 18 00 00 00       	pushq  $0x18
  400dbb:	e9 60 fe ff ff       	jmpq   400c20 <.plt>

0000000000400dc0 <getopt@plt>:
  400dc0:	ff 25 02 43 20 00    	jmpq   *0x204302(%rip)        # 6050c8 <getopt@GLIBC_2.2.5>
  400dc6:	68 19 00 00 00       	pushq  $0x19
  400dcb:	e9 50 fe ff ff       	jmpq   400c20 <.plt>

0000000000400dd0 <strtoul@plt>:
  400dd0:	ff 25 fa 42 20 00    	jmpq   *0x2042fa(%rip)        # 6050d0 <strtoul@GLIBC_2.2.5>
  400dd6:	68 1a 00 00 00       	pushq  $0x1a
  400ddb:	e9 40 fe ff ff       	jmpq   400c20 <.plt>

0000000000400de0 <gethostname@plt>:
  400de0:	ff 25 f2 42 20 00    	jmpq   *0x2042f2(%rip)        # 6050d8 <gethostname@GLIBC_2.2.5>
  400de6:	68 1b 00 00 00       	pushq  $0x1b
  400deb:	e9 30 fe ff ff       	jmpq   400c20 <.plt>

0000000000400df0 <exit@plt>:
  400df0:	ff 25 ea 42 20 00    	jmpq   *0x2042ea(%rip)        # 6050e0 <exit@GLIBC_2.2.5>
  400df6:	68 1c 00 00 00       	pushq  $0x1c
  400dfb:	e9 20 fe ff ff       	jmpq   400c20 <.plt>

0000000000400e00 <connect@plt>:
  400e00:	ff 25 e2 42 20 00    	jmpq   *0x2042e2(%rip)        # 6050e8 <connect@GLIBC_2.2.5>
  400e06:	68 1d 00 00 00       	pushq  $0x1d
  400e0b:	e9 10 fe ff ff       	jmpq   400c20 <.plt>

0000000000400e10 <__fprintf_chk@plt>:
  400e10:	ff 25 da 42 20 00    	jmpq   *0x2042da(%rip)        # 6050f0 <__fprintf_chk@GLIBC_2.3.4>
  400e16:	68 1e 00 00 00       	pushq  $0x1e
  400e1b:	e9 00 fe ff ff       	jmpq   400c20 <.plt>

0000000000400e20 <__sprintf_chk@plt>:
  400e20:	ff 25 d2 42 20 00    	jmpq   *0x2042d2(%rip)        # 6050f8 <__sprintf_chk@GLIBC_2.3.4>
  400e26:	68 1f 00 00 00       	pushq  $0x1f
  400e2b:	e9 f0 fd ff ff       	jmpq   400c20 <.plt>

0000000000400e30 <socket@plt>:
  400e30:	ff 25 ca 42 20 00    	jmpq   *0x2042ca(%rip)        # 605100 <socket@GLIBC_2.2.5>
  400e36:	68 20 00 00 00       	pushq  $0x20
  400e3b:	e9 e0 fd ff ff       	jmpq   400c20 <.plt>

Disassembly of section .text:

0000000000400e40 <_start>:
  400e40:	31 ed                	xor    %ebp,%ebp
  400e42:	49 89 d1             	mov    %rdx,%r9
  400e45:	5e                   	pop    %rsi
  400e46:	48 89 e2             	mov    %rsp,%rdx
  400e49:	48 83 e4 f0          	and    $0xfffffffffffffff0,%rsp
  400e4d:	50                   	push   %rax
  400e4e:	54                   	push   %rsp
  400e4f:	49 c7 c0 10 2f 40 00 	mov    $0x402f10,%r8
  400e56:	48 c7 c1 80 2e 40 00 	mov    $0x402e80,%rcx
  400e5d:	48 c7 c7 05 11 40 00 	mov    $0x401105,%rdi
  400e64:	e8 87 fe ff ff       	callq  400cf0 <__libc_start_main@plt>
  400e69:	f4                   	hlt    
  400e6a:	90                   	nop
  400e6b:	90                   	nop

0000000000400e6c <call_gmon_start>:
  400e6c:	48 83 ec 08          	sub    $0x8,%rsp
  400e70:	48 8b 05 69 41 20 00 	mov    0x204169(%rip),%rax        # 604fe0 <__gmon_start__>
  400e77:	48 85 c0             	test   %rax,%rax
  400e7a:	74 02                	je     400e7e <call_gmon_start+0x12>
  400e7c:	ff d0                	callq  *%rax
  400e7e:	48 83 c4 08          	add    $0x8,%rsp
  400e82:	c3                   	retq   
  400e83:	90                   	nop
  400e84:	90                   	nop
  400e85:	90                   	nop
  400e86:	90                   	nop
  400e87:	90                   	nop
  400e88:	90                   	nop
  400e89:	90                   	nop
  400e8a:	90                   	nop
  400e8b:	90                   	nop
  400e8c:	90                   	nop
  400e8d:	90                   	nop
  400e8e:	90                   	nop
  400e8f:	90                   	nop

0000000000400e90 <deregister_tm_clones>:
  400e90:	b8 97 54 60 00       	mov    $0x605497,%eax
  400e95:	55                   	push   %rbp
  400e96:	48 2d 90 54 60 00    	sub    $0x605490,%rax
  400e9c:	48 83 f8 0e          	cmp    $0xe,%rax
  400ea0:	48 89 e5             	mov    %rsp,%rbp
  400ea3:	77 02                	ja     400ea7 <deregister_tm_clones+0x17>
  400ea5:	5d                   	pop    %rbp
  400ea6:	c3                   	retq   
  400ea7:	b8 00 00 00 00       	mov    $0x0,%eax
  400eac:	48 85 c0             	test   %rax,%rax
  400eaf:	74 f4                	je     400ea5 <deregister_tm_clones+0x15>
  400eb1:	5d                   	pop    %rbp
  400eb2:	bf 90 54 60 00       	mov    $0x605490,%edi
  400eb7:	ff e0                	jmpq   *%rax
  400eb9:	0f 1f 80 00 00 00 00 	nopl   0x0(%rax)

0000000000400ec0 <register_tm_clones>:
  400ec0:	b8 90 54 60 00       	mov    $0x605490,%eax
  400ec5:	55                   	push   %rbp
  400ec6:	48 2d 90 54 60 00    	sub    $0x605490,%rax
  400ecc:	48 c1 f8 03          	sar    $0x3,%rax
  400ed0:	48 89 e5             	mov    %rsp,%rbp
  400ed3:	48 89 c2             	mov    %rax,%rdx
  400ed6:	48 c1 ea 3f          	shr    $0x3f,%rdx
  400eda:	48 01 d0             	add    %rdx,%rax
  400edd:	48 d1 f8             	sar    %rax
  400ee0:	75 02                	jne    400ee4 <register_tm_clones+0x24>
  400ee2:	5d                   	pop    %rbp
  400ee3:	c3                   	retq   
  400ee4:	ba 00 00 00 00       	mov    $0x0,%edx
  400ee9:	48 85 d2             	test   %rdx,%rdx
  400eec:	74 f4                	je     400ee2 <register_tm_clones+0x22>
  400eee:	5d                   	pop    %rbp
  400eef:	48 89 c6             	mov    %rax,%rsi
  400ef2:	bf 90 54 60 00       	mov    $0x605490,%edi
  400ef7:	ff e2                	jmpq   *%rdx
  400ef9:	0f 1f 80 00 00 00 00 	nopl   0x0(%rax)

0000000000400f00 <__do_global_dtors_aux>:
  400f00:	80 3d b1 45 20 00 00 	cmpb   $0x0,0x2045b1(%rip)        # 6054b8 <completed.6952>
  400f07:	75 11                	jne    400f1a <__do_global_dtors_aux+0x1a>
  400f09:	55                   	push   %rbp
  400f0a:	48 89 e5             	mov    %rsp,%rbp
  400f0d:	e8 7e ff ff ff       	callq  400e90 <deregister_tm_clones>
  400f12:	5d                   	pop    %rbp
  400f13:	c6 05 9e 45 20 00 01 	movb   $0x1,0x20459e(%rip)        # 6054b8 <completed.6952>
  400f1a:	f3 c3                	repz retq 
  400f1c:	0f 1f 40 00          	nopl   0x0(%rax)

0000000000400f20 <frame_dummy>:
  400f20:	48 83 3d e0 3e 20 00 	cmpq   $0x0,0x203ee0(%rip)        # 604e08 <__JCR_END__>
  400f27:	00 
  400f28:	74 1e                	je     400f48 <frame_dummy+0x28>
  400f2a:	b8 00 00 00 00       	mov    $0x0,%eax
  400f2f:	48 85 c0             	test   %rax,%rax
  400f32:	74 14                	je     400f48 <frame_dummy+0x28>
  400f34:	55                   	push   %rbp
  400f35:	bf 08 4e 60 00       	mov    $0x604e08,%edi
  400f3a:	48 89 e5             	mov    %rsp,%rbp
  400f3d:	ff d0                	callq  *%rax
  400f3f:	5d                   	pop    %rbp
  400f40:	e9 7b ff ff ff       	jmpq   400ec0 <register_tm_clones>
  400f45:	0f 1f 00             	nopl   (%rax)
  400f48:	e9 73 ff ff ff       	jmpq   400ec0 <register_tm_clones>
  400f4d:	90                   	nop
  400f4e:	90                   	nop
  400f4f:	90                   	nop

0000000000400f50 <usage>:
  400f50:	48 83 ec 08          	sub    $0x8,%rsp
  400f54:	48 89 fa             	mov    %rdi,%rdx
  400f57:	83 3d 8a 45 20 00 00 	cmpl   $0x0,0x20458a(%rip)        # 6054e8 <is_checker>
  400f5e:	74 3e                	je     400f9e <usage+0x4e>
  400f60:	be 28 2f 40 00       	mov    $0x402f28,%esi
  400f65:	bf 01 00 00 00       	mov    $0x1,%edi
  400f6a:	b8 00 00 00 00       	mov    $0x0,%eax
  400f6f:	e8 2c fe ff ff       	callq  400da0 <__printf_chk@plt>
  400f74:	bf 60 2f 40 00       	mov    $0x402f60,%edi
  400f79:	e8 f2 fc ff ff       	callq  400c70 <puts@plt>
  400f7e:	bf 98 30 40 00       	mov    $0x403098,%edi
  400f83:	e8 e8 fc ff ff       	callq  400c70 <puts@plt>
  400f88:	bf 88 2f 40 00       	mov    $0x402f88,%edi
  400f8d:	e8 de fc ff ff       	callq  400c70 <puts@plt>
  400f92:	bf b2 30 40 00       	mov    $0x4030b2,%edi
  400f97:	e8 d4 fc ff ff       	callq  400c70 <puts@plt>
  400f9c:	eb 32                	jmp    400fd0 <usage+0x80>
  400f9e:	be ce 30 40 00       	mov    $0x4030ce,%esi
  400fa3:	bf 01 00 00 00       	mov    $0x1,%edi
  400fa8:	b8 00 00 00 00       	mov    $0x0,%eax
  400fad:	e8 ee fd ff ff       	callq  400da0 <__printf_chk@plt>
  400fb2:	bf b0 2f 40 00       	mov    $0x402fb0,%edi
  400fb7:	e8 b4 fc ff ff       	callq  400c70 <puts@plt>
  400fbc:	bf d8 2f 40 00       	mov    $0x402fd8,%edi
  400fc1:	e8 aa fc ff ff       	callq  400c70 <puts@plt>
  400fc6:	bf ec 30 40 00       	mov    $0x4030ec,%edi
  400fcb:	e8 a0 fc ff ff       	callq  400c70 <puts@plt>
  400fd0:	bf 00 00 00 00       	mov    $0x0,%edi
  400fd5:	e8 16 fe ff ff       	callq  400df0 <exit@plt>

0000000000400fda <initialize_target>:
  400fda:	55                   	push   %rbp
  400fdb:	53                   	push   %rbx
  400fdc:	48 81 ec 18 21 00 00 	sub    $0x2118,%rsp
  400fe3:	89 f5                	mov    %esi,%ebp
  400fe5:	64 48 8b 04 25 28 00 	mov    %fs:0x28,%rax
  400fec:	00 00 
  400fee:	48 89 84 24 08 21 00 	mov    %rax,0x2108(%rsp)
  400ff5:	00 
  400ff6:	31 c0                	xor    %eax,%eax
  400ff8:	89 3d da 44 20 00    	mov    %edi,0x2044da(%rip)        # 6054d8 <check_level>
  400ffe:	8b 3d 44 41 20 00    	mov    0x204144(%rip),%edi        # 605148 <target_id>
  401004:	e8 4d 1e 00 00       	callq  402e56 <gencookie>
  401009:	89 05 d5 44 20 00    	mov    %eax,0x2044d5(%rip)        # 6054e4 <cookie>
  40100f:	89 c7                	mov    %eax,%edi
  401011:	e8 40 1e 00 00       	callq  402e56 <gencookie>
  401016:	89 05 c4 44 20 00    	mov    %eax,0x2044c4(%rip)        # 6054e0 <authkey>
  40101c:	8b 05 26 41 20 00    	mov    0x204126(%rip),%eax        # 605148 <target_id>
  401022:	8d 78 01             	lea    0x1(%rax),%edi
  401025:	e8 16 fc ff ff       	callq  400c40 <srandom@plt>
  40102a:	e8 31 fd ff ff       	callq  400d60 <random@plt>
  40102f:	89 c7                	mov    %eax,%edi
  401031:	e8 aa 02 00 00       	callq  4012e0 <scramble>
  401036:	89 c3                	mov    %eax,%ebx
  401038:	85 ed                	test   %ebp,%ebp
  40103a:	74 18                	je     401054 <initialize_target+0x7a>
  40103c:	bf 00 00 00 00       	mov    $0x0,%edi
  401041:	e8 0a fd ff ff       	callq  400d50 <time@plt>
  401046:	89 c7                	mov    %eax,%edi
  401048:	e8 f3 fb ff ff       	callq  400c40 <srandom@plt>
  40104d:	e8 0e fd ff ff       	callq  400d60 <random@plt>
  401052:	eb 05                	jmp    401059 <initialize_target+0x7f>
  401054:	b8 00 00 00 00       	mov    $0x0,%eax
  401059:	01 c3                	add    %eax,%ebx
  40105b:	0f b7 db             	movzwl %bx,%ebx
  40105e:	8d 04 dd 00 01 00 00 	lea    0x100(,%rbx,8),%eax
  401065:	89 c0                	mov    %eax,%eax
  401067:	48 89 05 12 44 20 00 	mov    %rax,0x204412(%rip)        # 605480 <buf_offset>
  40106e:	c6 05 93 50 20 00 72 	movb   $0x72,0x205093(%rip)        # 606108 <target_prefix>
  401075:	83 3d 0c 44 20 00 00 	cmpl   $0x0,0x20440c(%rip)        # 605488 <notify>
  40107c:	74 65                	je     4010e3 <initialize_target+0x109>
  40107e:	83 3d 63 44 20 00 00 	cmpl   $0x0,0x204463(%rip)        # 6054e8 <is_checker>
  401085:	75 5c                	jne    4010e3 <initialize_target+0x109>
  401087:	be 00 01 00 00       	mov    $0x100,%esi
  40108c:	48 89 e7             	mov    %rsp,%rdi
  40108f:	e8 4c fd ff ff       	callq  400de0 <gethostname@plt>
  401094:	85 c0                	test   %eax,%eax
  401096:	74 14                	je     4010ac <initialize_target+0xd2>
  401098:	bf 08 30 40 00       	mov    $0x403008,%edi
  40109d:	e8 ce fb ff ff       	callq  400c70 <puts@plt>
  4010a2:	bf 08 00 00 00       	mov    $0x8,%edi
  4010a7:	e8 44 fd ff ff       	callq  400df0 <exit@plt>
  4010ac:	48 8d bc 24 00 01 00 	lea    0x100(%rsp),%rdi
  4010b3:	00 
  4010b4:	e8 03 1b 00 00       	callq  402bbc <init_driver>
  4010b9:	85 c0                	test   %eax,%eax
  4010bb:	79 26                	jns    4010e3 <initialize_target+0x109>
  4010bd:	48 8d 94 24 00 01 00 	lea    0x100(%rsp),%rdx
  4010c4:	00 
  4010c5:	be 40 30 40 00       	mov    $0x403040,%esi
  4010ca:	bf 01 00 00 00       	mov    $0x1,%edi
  4010cf:	b8 00 00 00 00       	mov    $0x0,%eax
  4010d4:	e8 c7 fc ff ff       	callq  400da0 <__printf_chk@plt>
  4010d9:	bf 08 00 00 00       	mov    $0x8,%edi
  4010de:	e8 0d fd ff ff       	callq  400df0 <exit@plt>
  4010e3:	48 8b 84 24 08 21 00 	mov    0x2108(%rsp),%rax
  4010ea:	00 
  4010eb:	64 48 33 04 25 28 00 	xor    %fs:0x28,%rax
  4010f2:	00 00 
  4010f4:	74 05                	je     4010fb <initialize_target+0x121>
  4010f6:	e8 95 fb ff ff       	callq  400c90 <__stack_chk_fail@plt>
  4010fb:	48 81 c4 18 21 00 00 	add    $0x2118,%rsp
  401102:	5b                   	pop    %rbx
  401103:	5d                   	pop    %rbp
  401104:	c3                   	retq   

0000000000401105 <main>:
  401105:	41 56                	push   %r14
  401107:	41 55                	push   %r13
  401109:	41 54                	push   %r12
  40110b:	55                   	push   %rbp
  40110c:	53                   	push   %rbx
  40110d:	41 89 fc             	mov    %edi,%r12d
  401110:	48 89 f3             	mov    %rsi,%rbx
  401113:	be 5e 1f 40 00       	mov    $0x401f5e,%esi
  401118:	bf 0b 00 00 00       	mov    $0xb,%edi
  40111d:	e8 de fb ff ff       	callq  400d00 <signal@plt>
  401122:	be 10 1f 40 00       	mov    $0x401f10,%esi
  401127:	bf 07 00 00 00       	mov    $0x7,%edi
  40112c:	e8 cf fb ff ff       	callq  400d00 <signal@plt>
  401131:	be ac 1f 40 00       	mov    $0x401fac,%esi
  401136:	bf 04 00 00 00       	mov    $0x4,%edi
  40113b:	e8 c0 fb ff ff       	callq  400d00 <signal@plt>
  401140:	83 3d a1 43 20 00 00 	cmpl   $0x0,0x2043a1(%rip)        # 6054e8 <is_checker>
  401147:	74 20                	je     401169 <main+0x64>
  401149:	be fa 1f 40 00       	mov    $0x401ffa,%esi
  40114e:	bf 0e 00 00 00       	mov    $0xe,%edi
  401153:	e8 a8 fb ff ff       	callq  400d00 <signal@plt>
  401158:	bf 05 00 00 00       	mov    $0x5,%edi
  40115d:	e8 5e fb ff ff       	callq  400cc0 <alarm@plt>
  401162:	bd 0a 31 40 00       	mov    $0x40310a,%ebp
  401167:	eb 05                	jmp    40116e <main+0x69>
  401169:	bd 05 31 40 00       	mov    $0x403105,%ebp
  40116e:	48 8b 05 2b 43 20 00 	mov    0x20432b(%rip),%rax        # 6054a0 <stdin@@GLIBC_2.2.5>
  401175:	48 89 05 54 43 20 00 	mov    %rax,0x204354(%rip)        # 6054d0 <infile>
  40117c:	41 bd 00 00 00 00    	mov    $0x0,%r13d
  401182:	41 be 00 00 00 00    	mov    $0x0,%r14d
  401188:	e9 c6 00 00 00       	jmpq   401253 <main+0x14e>
  40118d:	83 e8 61             	sub    $0x61,%eax
  401190:	3c 10                	cmp    $0x10,%al
  401192:	0f 87 9c 00 00 00    	ja     401234 <main+0x12f>
  401198:	0f b6 c0             	movzbl %al,%eax
  40119b:	ff 24 c5 50 31 40 00 	jmpq   *0x403150(,%rax,8)
  4011a2:	48 8b 3b             	mov    (%rbx),%rdi
  4011a5:	e8 a6 fd ff ff       	callq  400f50 <usage>
  4011aa:	be d5 33 40 00       	mov    $0x4033d5,%esi
  4011af:	48 8b 3d f2 42 20 00 	mov    0x2042f2(%rip),%rdi        # 6054a8 <optarg@@GLIBC_2.2.5>
  4011b6:	e8 f5 fb ff ff       	callq  400db0 <fopen@plt>
  4011bb:	48 89 05 0e 43 20 00 	mov    %rax,0x20430e(%rip)        # 6054d0 <infile>
  4011c2:	48 85 c0             	test   %rax,%rax
  4011c5:	0f 85 88 00 00 00    	jne    401253 <main+0x14e>
  4011cb:	48 8b 0d d6 42 20 00 	mov    0x2042d6(%rip),%rcx        # 6054a8 <optarg@@GLIBC_2.2.5>
  4011d2:	ba 12 31 40 00       	mov    $0x403112,%edx
  4011d7:	be 01 00 00 00       	mov    $0x1,%esi
  4011dc:	48 8b 3d cd 42 20 00 	mov    0x2042cd(%rip),%rdi        # 6054b0 <stderr@@GLIBC_2.2.5>
  4011e3:	e8 28 fc ff ff       	callq  400e10 <__fprintf_chk@plt>
  4011e8:	b8 01 00 00 00       	mov    $0x1,%eax
  4011ed:	e9 e4 00 00 00       	jmpq   4012d6 <main+0x1d1>
  4011f2:	ba 10 00 00 00       	mov    $0x10,%edx
  4011f7:	be 00 00 00 00       	mov    $0x0,%esi
  4011fc:	48 8b 3d a5 42 20 00 	mov    0x2042a5(%rip),%rdi        # 6054a8 <optarg@@GLIBC_2.2.5>
  401203:	e8 c8 fb ff ff       	callq  400dd0 <strtoul@plt>
  401208:	41 89 c6             	mov    %eax,%r14d
  40120b:	eb 46                	jmp    401253 <main+0x14e>
  40120d:	ba 0a 00 00 00       	mov    $0xa,%edx
  401212:	be 00 00 00 00       	mov    $0x0,%esi
  401217:	48 8b 3d 8a 42 20 00 	mov    0x20428a(%rip),%rdi        # 6054a8 <optarg@@GLIBC_2.2.5>
  40121e:	e8 0d fb ff ff       	callq  400d30 <strtol@plt>
  401223:	41 89 c5             	mov    %eax,%r13d
  401226:	eb 2b                	jmp    401253 <main+0x14e>
  401228:	c7 05 56 42 20 00 00 	movl   $0x0,0x204256(%rip)        # 605488 <notify>
  40122f:	00 00 00 
  401232:	eb 1f                	jmp    401253 <main+0x14e>
  401234:	0f be d2             	movsbl %dl,%edx
  401237:	be 2f 31 40 00       	mov    $0x40312f,%esi
  40123c:	bf 01 00 00 00       	mov    $0x1,%edi
  401241:	b8 00 00 00 00       	mov    $0x0,%eax
  401246:	e8 55 fb ff ff       	callq  400da0 <__printf_chk@plt>
  40124b:	48 8b 3b             	mov    (%rbx),%rdi
  40124e:	e8 fd fc ff ff       	callq  400f50 <usage>
  401253:	48 89 ea             	mov    %rbp,%rdx
  401256:	48 89 de             	mov    %rbx,%rsi
  401259:	44 89 e7             	mov    %r12d,%edi
  40125c:	e8 5f fb ff ff       	callq  400dc0 <getopt@plt>
  401261:	89 c2                	mov    %eax,%edx
  401263:	3c ff                	cmp    $0xff,%al
  401265:	0f 85 22 ff ff ff    	jne    40118d <main+0x88>
  40126b:	be 01 00 00 00       	mov    $0x1,%esi
  401270:	44 89 ef             	mov    %r13d,%edi
  401273:	e8 62 fd ff ff       	callq  400fda <initialize_target>
  401278:	83 3d 69 42 20 00 00 	cmpl   $0x0,0x204269(%rip)        # 6054e8 <is_checker>
  40127f:	74 2a                	je     4012ab <main+0x1a6>
  401281:	44 3b 35 58 42 20 00 	cmp    0x204258(%rip),%r14d        # 6054e0 <authkey>
  401288:	74 21                	je     4012ab <main+0x1a6>
  40128a:	44 89 f2             	mov    %r14d,%edx
  40128d:	be 68 30 40 00       	mov    $0x403068,%esi
  401292:	bf 01 00 00 00       	mov    $0x1,%edi
  401297:	b8 00 00 00 00       	mov    $0x0,%eax
  40129c:	e8 ff fa ff ff       	callq  400da0 <__printf_chk@plt>
  4012a1:	b8 00 00 00 00       	mov    $0x0,%eax
  4012a6:	e8 f0 08 00 00       	callq  401b9b <check_fail>
  4012ab:	8b 15 33 42 20 00    	mov    0x204233(%rip),%edx        # 6054e4 <cookie>
  4012b1:	be 42 31 40 00       	mov    $0x403142,%esi
  4012b6:	bf 01 00 00 00       	mov    $0x1,%edi
  4012bb:	b8 00 00 00 00       	mov    $0x0,%eax
  4012c0:	e8 db fa ff ff       	callq  400da0 <__printf_chk@plt>
  4012c5:	48 8b 3d b4 41 20 00 	mov    0x2041b4(%rip),%rdi        # 605480 <buf_offset>
  4012cc:	e8 7c 0d 00 00       	callq  40204d <launch>
  4012d1:	b8 00 00 00 00       	mov    $0x0,%eax
  4012d6:	5b                   	pop    %rbx
  4012d7:	5d                   	pop    %rbp
  4012d8:	41 5c                	pop    %r12
  4012da:	41 5d                	pop    %r13
  4012dc:	41 5e                	pop    %r14
  4012de:	c3                   	retq   
  4012df:	90                   	nop

00000000004012e0 <scramble>:
  4012e0:	b8 00 00 00 00       	mov    $0x0,%eax
  4012e5:	eb 11                	jmp    4012f8 <scramble+0x18>
  4012e7:	69 c8 b9 bf 00 00    	imul   $0xbfb9,%eax,%ecx
  4012ed:	01 f9                	add    %edi,%ecx
  4012ef:	89 c2                	mov    %eax,%edx
  4012f1:	89 4c 94 c8          	mov    %ecx,-0x38(%rsp,%rdx,4)
  4012f5:	83 c0 01             	add    $0x1,%eax
  4012f8:	83 f8 09             	cmp    $0x9,%eax
  4012fb:	76 ea                	jbe    4012e7 <scramble+0x7>
  4012fd:	8b 44 24 dc          	mov    -0x24(%rsp),%eax
  401301:	69 c0 18 76 00 00    	imul   $0x7618,%eax,%eax
  401307:	89 44 24 dc          	mov    %eax,-0x24(%rsp)
  40130b:	8b 44 24 dc          	mov    -0x24(%rsp),%eax
  40130f:	69 c0 ac 7a 00 00    	imul   $0x7aac,%eax,%eax
  401315:	89 44 24 dc          	mov    %eax,-0x24(%rsp)
  401319:	8b 44 24 d4          	mov    -0x2c(%rsp),%eax
  40131d:	69 c0 f6 7d 00 00    	imul   $0x7df6,%eax,%eax
  401323:	89 44 24 d4          	mov    %eax,-0x2c(%rsp)
  401327:	8b 44 24 e8          	mov    -0x18(%rsp),%eax
  40132b:	69 c0 8a 5f 00 00    	imul   $0x5f8a,%eax,%eax
  401331:	89 44 24 e8          	mov    %eax,-0x18(%rsp)
  401335:	8b 44 24 d4          	mov    -0x2c(%rsp),%eax
  401339:	69 c0 8f fc 00 00    	imul   $0xfc8f,%eax,%eax
  40133f:	89 44 24 d4          	mov    %eax,-0x2c(%rsp)
  401343:	8b 44 24 d4          	mov    -0x2c(%rsp),%eax
  401347:	69 c0 e5 e4 00 00    	imul   $0xe4e5,%eax,%eax
  40134d:	89 44 24 d4          	mov    %eax,-0x2c(%rsp)
  401351:	8b 44 24 e0          	mov    -0x20(%rsp),%eax
  401355:	69 c0 02 5b 00 00    	imul   $0x5b02,%eax,%eax
  40135b:	89 44 24 e0          	mov    %eax,-0x20(%rsp)
  40135f:	8b 44 24 d0          	mov    -0x30(%rsp),%eax
  401363:	69 c0 00 2e 00 00    	imul   $0x2e00,%eax,%eax
  401369:	89 44 24 d0          	mov    %eax,-0x30(%rsp)
  40136d:	8b 44 24 d8          	mov    -0x28(%rsp),%eax
  401371:	69 c0 77 1a 00 00    	imul   $0x1a77,%eax,%eax
  401377:	89 44 24 d8          	mov    %eax,-0x28(%rsp)
  40137b:	8b 44 24 c8          	mov    -0x38(%rsp),%eax
  40137f:	69 c0 bf f3 00 00    	imul   $0xf3bf,%eax,%eax
  401385:	89 44 24 c8          	mov    %eax,-0x38(%rsp)
  401389:	8b 44 24 d0          	mov    -0x30(%rsp),%eax
  40138d:	69 c0 ec 1d 00 00    	imul   $0x1dec,%eax,%eax
  401393:	89 44 24 d0          	mov    %eax,-0x30(%rsp)
  401397:	8b 44 24 cc          	mov    -0x34(%rsp),%eax
  40139b:	69 c0 2d a3 00 00    	imul   $0xa32d,%eax,%eax
  4013a1:	89 44 24 cc          	mov    %eax,-0x34(%rsp)
  4013a5:	8b 44 24 e8          	mov    -0x18(%rsp),%eax
  4013a9:	69 c0 dc 18 00 00    	imul   $0x18dc,%eax,%eax
  4013af:	89 44 24 e8          	mov    %eax,-0x18(%rsp)
  4013b3:	8b 44 24 dc          	mov    -0x24(%rsp),%eax
  4013b7:	69 c0 f5 14 00 00    	imul   $0x14f5,%eax,%eax
  4013bd:	89 44 24 dc          	mov    %eax,-0x24(%rsp)
  4013c1:	8b 44 24 c8          	mov    -0x38(%rsp),%eax
  4013c5:	69 c0 57 aa 00 00    	imul   $0xaa57,%eax,%eax
  4013cb:	89 44 24 c8          	mov    %eax,-0x38(%rsp)
  4013cf:	8b 44 24 ec          	mov    -0x14(%rsp),%eax
  4013d3:	69 c0 d8 89 00 00    	imul   $0x89d8,%eax,%eax
  4013d9:	89 44 24 ec          	mov    %eax,-0x14(%rsp)
  4013dd:	8b 44 24 cc          	mov    -0x34(%rsp),%eax
  4013e1:	69 c0 e4 f1 00 00    	imul   $0xf1e4,%eax,%eax
  4013e7:	89 44 24 cc          	mov    %eax,-0x34(%rsp)
  4013eb:	8b 44 24 d8          	mov    -0x28(%rsp),%eax
  4013ef:	69 c0 e4 29 00 00    	imul   $0x29e4,%eax,%eax
  4013f5:	89 44 24 d8          	mov    %eax,-0x28(%rsp)
  4013f9:	8b 44 24 ec          	mov    -0x14(%rsp),%eax
  4013fd:	69 c0 88 d0 00 00    	imul   $0xd088,%eax,%eax
  401403:	89 44 24 ec          	mov    %eax,-0x14(%rsp)
  401407:	8b 44 24 d0          	mov    -0x30(%rsp),%eax
  40140b:	69 c0 2d 3f 00 00    	imul   $0x3f2d,%eax,%eax
  401411:	89 44 24 d0          	mov    %eax,-0x30(%rsp)
  401415:	8b 44 24 d0          	mov    -0x30(%rsp),%eax
  401419:	69 c0 1a 0c 00 00    	imul   $0xc1a,%eax,%eax
  40141f:	89 44 24 d0          	mov    %eax,-0x30(%rsp)
  401423:	8b 44 24 e0          	mov    -0x20(%rsp),%eax
  401427:	69 c0 8d b7 00 00    	imul   $0xb78d,%eax,%eax
  40142d:	89 44 24 e0          	mov    %eax,-0x20(%rsp)
  401431:	8b 44 24 e8          	mov    -0x18(%rsp),%eax
  401435:	69 c0 eb 23 00 00    	imul   $0x23eb,%eax,%eax
  40143b:	89 44 24 e8          	mov    %eax,-0x18(%rsp)
  40143f:	8b 44 24 d0          	mov    -0x30(%rsp),%eax
  401443:	69 c0 a9 05 00 00    	imul   $0x5a9,%eax,%eax
  401449:	89 44 24 d0          	mov    %eax,-0x30(%rsp)
  40144d:	8b 44 24 d0          	mov    -0x30(%rsp),%eax
  401451:	69 c0 c6 94 00 00    	imul   $0x94c6,%eax,%eax
  401457:	89 44 24 d0          	mov    %eax,-0x30(%rsp)
  40145b:	8b 44 24 e4          	mov    -0x1c(%rsp),%eax
  40145f:	69 c0 00 43 00 00    	imul   $0x4300,%eax,%eax
  401465:	89 44 24 e4          	mov    %eax,-0x1c(%rsp)
  401469:	8b 44 24 d4          	mov    -0x2c(%rsp),%eax
  40146d:	69 c0 46 9e 00 00    	imul   $0x9e46,%eax,%eax
  401473:	89 44 24 d4          	mov    %eax,-0x2c(%rsp)
  401477:	8b 44 24 e0          	mov    -0x20(%rsp),%eax
  40147b:	69 c0 06 92 00 00    	imul   $0x9206,%eax,%eax
  401481:	89 44 24 e0          	mov    %eax,-0x20(%rsp)
  401485:	8b 44 24 e8          	mov    -0x18(%rsp),%eax
  401489:	69 c0 61 0b 00 00    	imul   $0xb61,%eax,%eax
  40148f:	89 44 24 e8          	mov    %eax,-0x18(%rsp)
  401493:	8b 44 24 e8          	mov    -0x18(%rsp),%eax
  401497:	69 c0 41 81 00 00    	imul   $0x8141,%eax,%eax
  40149d:	89 44 24 e8          	mov    %eax,-0x18(%rsp)
  4014a1:	8b 44 24 e0          	mov    -0x20(%rsp),%eax
  4014a5:	69 c0 ae ca 00 00    	imul   $0xcaae,%eax,%eax
  4014ab:	89 44 24 e0          	mov    %eax,-0x20(%rsp)
  4014af:	8b 44 24 d8          	mov    -0x28(%rsp),%eax
  4014b3:	69 c0 27 d6 00 00    	imul   $0xd627,%eax,%eax
  4014b9:	89 44 24 d8          	mov    %eax,-0x28(%rsp)
  4014bd:	8b 44 24 e0          	mov    -0x20(%rsp),%eax
  4014c1:	69 c0 9f 0f 00 00    	imul   $0xf9f,%eax,%eax
  4014c7:	89 44 24 e0          	mov    %eax,-0x20(%rsp)
  4014cb:	8b 44 24 dc          	mov    -0x24(%rsp),%eax
  4014cf:	69 c0 6d 2c 00 00    	imul   $0x2c6d,%eax,%eax
  4014d5:	89 44 24 dc          	mov    %eax,-0x24(%rsp)
  4014d9:	8b 44 24 e0          	mov    -0x20(%rsp),%eax
  4014dd:	69 c0 7b 89 00 00    	imul   $0x897b,%eax,%eax
  4014e3:	89 44 24 e0          	mov    %eax,-0x20(%rsp)
  4014e7:	8b 44 24 cc          	mov    -0x34(%rsp),%eax
  4014eb:	69 c0 3f ad 00 00    	imul   $0xad3f,%eax,%eax
  4014f1:	89 44 24 cc          	mov    %eax,-0x34(%rsp)
  4014f5:	8b 44 24 e4          	mov    -0x1c(%rsp),%eax
  4014f9:	69 c0 ac 8f 00 00    	imul   $0x8fac,%eax,%eax
  4014ff:	89 44 24 e4          	mov    %eax,-0x1c(%rsp)
  401503:	8b 44 24 e4          	mov    -0x1c(%rsp),%eax
  401507:	69 c0 b1 fc 00 00    	imul   $0xfcb1,%eax,%eax
  40150d:	89 44 24 e4          	mov    %eax,-0x1c(%rsp)
  401511:	8b 44 24 c8          	mov    -0x38(%rsp),%eax
  401515:	69 c0 5b 4a 00 00    	imul   $0x4a5b,%eax,%eax
  40151b:	89 44 24 c8          	mov    %eax,-0x38(%rsp)
  40151f:	8b 44 24 d4          	mov    -0x2c(%rsp),%eax
  401523:	69 c0 fa f1 00 00    	imul   $0xf1fa,%eax,%eax
  401529:	89 44 24 d4          	mov    %eax,-0x2c(%rsp)
  40152d:	8b 44 24 e8          	mov    -0x18(%rsp),%eax
  401531:	69 c0 c2 fb 00 00    	imul   $0xfbc2,%eax,%eax
  401537:	89 44 24 e8          	mov    %eax,-0x18(%rsp)
  40153b:	8b 44 24 e0          	mov    -0x20(%rsp),%eax
  40153f:	69 c0 d4 91 00 00    	imul   $0x91d4,%eax,%eax
  401545:	89 44 24 e0          	mov    %eax,-0x20(%rsp)
  401549:	8b 44 24 ec          	mov    -0x14(%rsp),%eax
  40154d:	69 c0 28 1b 00 00    	imul   $0x1b28,%eax,%eax
  401553:	89 44 24 ec          	mov    %eax,-0x14(%rsp)
  401557:	8b 44 24 e4          	mov    -0x1c(%rsp),%eax
  40155b:	69 c0 2b 51 00 00    	imul   $0x512b,%eax,%eax
  401561:	89 44 24 e4          	mov    %eax,-0x1c(%rsp)
  401565:	8b 44 24 e8          	mov    -0x18(%rsp),%eax
  401569:	69 c0 d7 ca 00 00    	imul   $0xcad7,%eax,%eax
  40156f:	89 44 24 e8          	mov    %eax,-0x18(%rsp)
  401573:	8b 44 24 e4          	mov    -0x1c(%rsp),%eax
  401577:	69 c0 42 dc 00 00    	imul   $0xdc42,%eax,%eax
  40157d:	89 44 24 e4          	mov    %eax,-0x1c(%rsp)
  401581:	8b 44 24 dc          	mov    -0x24(%rsp),%eax
  401585:	69 c0 86 dd 00 00    	imul   $0xdd86,%eax,%eax
  40158b:	89 44 24 dc          	mov    %eax,-0x24(%rsp)
  40158f:	8b 44 24 dc          	mov    -0x24(%rsp),%eax
  401593:	69 c0 18 52 00 00    	imul   $0x5218,%eax,%eax
  401599:	89 44 24 dc          	mov    %eax,-0x24(%rsp)
  40159d:	8b 44 24 dc          	mov    -0x24(%rsp),%eax
  4015a1:	69 c0 75 b2 00 00    	imul   $0xb275,%eax,%eax
  4015a7:	89 44 24 dc          	mov    %eax,-0x24(%rsp)
  4015ab:	8b 44 24 e8          	mov    -0x18(%rsp),%eax
  4015af:	69 c0 4d cd 00 00    	imul   $0xcd4d,%eax,%eax
  4015b5:	89 44 24 e8          	mov    %eax,-0x18(%rsp)
  4015b9:	8b 44 24 d0          	mov    -0x30(%rsp),%eax
  4015bd:	69 c0 1f ea 00 00    	imul   $0xea1f,%eax,%eax
  4015c3:	89 44 24 d0          	mov    %eax,-0x30(%rsp)
  4015c7:	8b 44 24 ec          	mov    -0x14(%rsp),%eax
  4015cb:	69 c0 85 d1 00 00    	imul   $0xd185,%eax,%eax
  4015d1:	89 44 24 ec          	mov    %eax,-0x14(%rsp)
  4015d5:	8b 44 24 cc          	mov    -0x34(%rsp),%eax
  4015d9:	69 c0 59 df 00 00    	imul   $0xdf59,%eax,%eax
  4015df:	89 44 24 cc          	mov    %eax,-0x34(%rsp)
  4015e3:	8b 44 24 e8          	mov    -0x18(%rsp),%eax
  4015e7:	69 c0 63 2d 00 00    	imul   $0x2d63,%eax,%eax
  4015ed:	89 44 24 e8          	mov    %eax,-0x18(%rsp)
  4015f1:	8b 44 24 cc          	mov    -0x34(%rsp),%eax
  4015f5:	69 c0 91 d0 00 00    	imul   $0xd091,%eax,%eax
  4015fb:	89 44 24 cc          	mov    %eax,-0x34(%rsp)
  4015ff:	8b 44 24 e0          	mov    -0x20(%rsp),%eax
  401603:	69 c0 d6 08 00 00    	imul   $0x8d6,%eax,%eax
  401609:	89 44 24 e0          	mov    %eax,-0x20(%rsp)
  40160d:	8b 44 24 d8          	mov    -0x28(%rsp),%eax
  401611:	69 c0 57 54 00 00    	imul   $0x5457,%eax,%eax
  401617:	89 44 24 d8          	mov    %eax,-0x28(%rsp)
  40161b:	8b 44 24 d4          	mov    -0x2c(%rsp),%eax
  40161f:	69 c0 5c 66 00 00    	imul   $0x665c,%eax,%eax
  401625:	89 44 24 d4          	mov    %eax,-0x2c(%rsp)
  401629:	8b 44 24 ec          	mov    -0x14(%rsp),%eax
  40162d:	69 c0 85 be 00 00    	imul   $0xbe85,%eax,%eax
  401633:	89 44 24 ec          	mov    %eax,-0x14(%rsp)
  401637:	8b 44 24 d0          	mov    -0x30(%rsp),%eax
  40163b:	69 c0 09 96 00 00    	imul   $0x9609,%eax,%eax
  401641:	89 44 24 d0          	mov    %eax,-0x30(%rsp)
  401645:	8b 44 24 ec          	mov    -0x14(%rsp),%eax
  401649:	69 c0 f4 89 00 00    	imul   $0x89f4,%eax,%eax
  40164f:	89 44 24 ec          	mov    %eax,-0x14(%rsp)
  401653:	8b 44 24 d8          	mov    -0x28(%rsp),%eax
  401657:	69 c0 e2 1e 00 00    	imul   $0x1ee2,%eax,%eax
  40165d:	89 44 24 d8          	mov    %eax,-0x28(%rsp)
  401661:	8b 44 24 d8          	mov    -0x28(%rsp),%eax
  401665:	69 c0 b4 24 00 00    	imul   $0x24b4,%eax,%eax
  40166b:	89 44 24 d8          	mov    %eax,-0x28(%rsp)
  40166f:	8b 44 24 c8          	mov    -0x38(%rsp),%eax
  401673:	69 c0 a0 54 00 00    	imul   $0x54a0,%eax,%eax
  401679:	89 44 24 c8          	mov    %eax,-0x38(%rsp)
  40167d:	8b 44 24 d4          	mov    -0x2c(%rsp),%eax
  401681:	69 c0 7f ef 00 00    	imul   $0xef7f,%eax,%eax
  401687:	89 44 24 d4          	mov    %eax,-0x2c(%rsp)
  40168b:	8b 44 24 d0          	mov    -0x30(%rsp),%eax
  40168f:	69 c0 1a 13 00 00    	imul   $0x131a,%eax,%eax
  401695:	89 44 24 d0          	mov    %eax,-0x30(%rsp)
  401699:	8b 44 24 d0          	mov    -0x30(%rsp),%eax
  40169d:	69 c0 79 9c 00 00    	imul   $0x9c79,%eax,%eax
  4016a3:	89 44 24 d0          	mov    %eax,-0x30(%rsp)
  4016a7:	8b 44 24 ec          	mov    -0x14(%rsp),%eax
  4016ab:	69 c0 69 53 00 00    	imul   $0x5369,%eax,%eax
  4016b1:	89 44 24 ec          	mov    %eax,-0x14(%rsp)
  4016b5:	8b 44 24 d8          	mov    -0x28(%rsp),%eax
  4016b9:	69 c0 d7 b2 00 00    	imul   $0xb2d7,%eax,%eax
  4016bf:	89 44 24 d8          	mov    %eax,-0x28(%rsp)
  4016c3:	8b 44 24 e0          	mov    -0x20(%rsp),%eax
  4016c7:	69 c0 87 a5 00 00    	imul   $0xa587,%eax,%eax
  4016cd:	89 44 24 e0          	mov    %eax,-0x20(%rsp)
  4016d1:	8b 44 24 d4          	mov    -0x2c(%rsp),%eax
  4016d5:	69 c0 29 a0 00 00    	imul   $0xa029,%eax,%eax
  4016db:	89 44 24 d4          	mov    %eax,-0x2c(%rsp)
  4016df:	8b 44 24 e4          	mov    -0x1c(%rsp),%eax
  4016e3:	69 c0 bc 4f 00 00    	imul   $0x4fbc,%eax,%eax
  4016e9:	89 44 24 e4          	mov    %eax,-0x1c(%rsp)
  4016ed:	8b 44 24 ec          	mov    -0x14(%rsp),%eax
  4016f1:	69 c0 08 49 00 00    	imul   $0x4908,%eax,%eax
  4016f7:	89 44 24 ec          	mov    %eax,-0x14(%rsp)
  4016fb:	8b 44 24 cc          	mov    -0x34(%rsp),%eax
  4016ff:	69 c0 00 64 00 00    	imul   $0x6400,%eax,%eax
  401705:	89 44 24 cc          	mov    %eax,-0x34(%rsp)
  401709:	8b 44 24 dc          	mov    -0x24(%rsp),%eax
  40170d:	69 c0 a0 6d 00 00    	imul   $0x6da0,%eax,%eax
  401713:	89 44 24 dc          	mov    %eax,-0x24(%rsp)
  401717:	8b 44 24 e0          	mov    -0x20(%rsp),%eax
  40171b:	69 c0 ea 90 00 00    	imul   $0x90ea,%eax,%eax
  401721:	89 44 24 e0          	mov    %eax,-0x20(%rsp)
  401725:	8b 44 24 e0          	mov    -0x20(%rsp),%eax
  401729:	69 c0 54 6c 00 00    	imul   $0x6c54,%eax,%eax
  40172f:	89 44 24 e0          	mov    %eax,-0x20(%rsp)
  401733:	8b 44 24 d4          	mov    -0x2c(%rsp),%eax
  401737:	69 c0 0f 5f 00 00    	imul   $0x5f0f,%eax,%eax
  40173d:	89 44 24 d4          	mov    %eax,-0x2c(%rsp)
  401741:	8b 44 24 d4          	mov    -0x2c(%rsp),%eax
  401745:	69 c0 c6 20 00 00    	imul   $0x20c6,%eax,%eax
  40174b:	89 44 24 d4          	mov    %eax,-0x2c(%rsp)
  40174f:	8b 44 24 d4          	mov    -0x2c(%rsp),%eax
  401753:	69 c0 33 68 00 00    	imul   $0x6833,%eax,%eax
  401759:	89 44 24 d4          	mov    %eax,-0x2c(%rsp)
  40175d:	8b 44 24 dc          	mov    -0x24(%rsp),%eax
  401761:	69 c0 9c d5 00 00    	imul   $0xd59c,%eax,%eax
  401767:	89 44 24 dc          	mov    %eax,-0x24(%rsp)
  40176b:	8b 44 24 dc          	mov    -0x24(%rsp),%eax
  40176f:	69 c0 e3 e9 00 00    	imul   $0xe9e3,%eax,%eax
  401775:	89 44 24 dc          	mov    %eax,-0x24(%rsp)
  401779:	8b 44 24 d0          	mov    -0x30(%rsp),%eax
  40177d:	69 c0 ed 5f 00 00    	imul   $0x5fed,%eax,%eax
  401783:	89 44 24 d0          	mov    %eax,-0x30(%rsp)
  401787:	8b 44 24 e0          	mov    -0x20(%rsp),%eax
  40178b:	69 c0 e8 ed 00 00    	imul   $0xede8,%eax,%eax
  401791:	89 44 24 e0          	mov    %eax,-0x20(%rsp)
  401795:	8b 44 24 d8          	mov    -0x28(%rsp),%eax
  401799:	69 c0 19 be 00 00    	imul   $0xbe19,%eax,%eax
  40179f:	89 44 24 d8          	mov    %eax,-0x28(%rsp)
  4017a3:	8b 44 24 d8          	mov    -0x28(%rsp),%eax
  4017a7:	69 c0 2d 96 00 00    	imul   $0x962d,%eax,%eax
  4017ad:	89 44 24 d8          	mov    %eax,-0x28(%rsp)
  4017b1:	8b 44 24 ec          	mov    -0x14(%rsp),%eax
  4017b5:	69 c0 cd 41 00 00    	imul   $0x41cd,%eax,%eax
  4017bb:	89 44 24 ec          	mov    %eax,-0x14(%rsp)
  4017bf:	8b 44 24 e4          	mov    -0x1c(%rsp),%eax
  4017c3:	69 c0 c3 52 00 00    	imul   $0x52c3,%eax,%eax
  4017c9:	89 44 24 e4          	mov    %eax,-0x1c(%rsp)
  4017cd:	8b 44 24 e0          	mov    -0x20(%rsp),%eax
  4017d1:	69 c0 02 9c 00 00    	imul   $0x9c02,%eax,%eax
  4017d7:	89 44 24 e0          	mov    %eax,-0x20(%rsp)
  4017db:	8b 44 24 e4          	mov    -0x1c(%rsp),%eax
  4017df:	69 c0 63 92 00 00    	imul   $0x9263,%eax,%eax
  4017e5:	89 44 24 e4          	mov    %eax,-0x1c(%rsp)
  4017e9:	8b 44 24 ec          	mov    -0x14(%rsp),%eax
  4017ed:	69 c0 cd b0 00 00    	imul   $0xb0cd,%eax,%eax
  4017f3:	89 44 24 ec          	mov    %eax,-0x14(%rsp)
  4017f7:	8b 44 24 c8          	mov    -0x38(%rsp),%eax
  4017fb:	69 c0 37 01 00 00    	imul   $0x137,%eax,%eax
  401801:	89 44 24 c8          	mov    %eax,-0x38(%rsp)
  401805:	ba 00 00 00 00       	mov    $0x0,%edx
  40180a:	b8 00 00 00 00       	mov    $0x0,%eax
  40180f:	eb 0b                	jmp    40181c <scramble+0x53c>
  401811:	89 d1                	mov    %edx,%ecx
  401813:	8b 4c 8c c8          	mov    -0x38(%rsp,%rcx,4),%ecx
  401817:	01 c8                	add    %ecx,%eax
  401819:	83 c2 01             	add    $0x1,%edx
  40181c:	83 fa 09             	cmp    $0x9,%edx
  40181f:	76 f0                	jbe    401811 <scramble+0x531>
  401821:	f3 c3                	repz retq 
  401823:	90                   	nop

0000000000401824 <getbuf>:
  401824:	48 83 ec 38          	sub    $0x38,%rsp
  401828:	48 89 e7             	mov    %rsp,%rdi
  40182b:	e8 a0 03 00 00       	callq  401bd0 <Gets>
  401830:	b8 01 00 00 00       	mov    $0x1,%eax
  401835:	48 83 c4 38          	add    $0x38,%rsp
  401839:	c3                   	retq   
  40183a:	90                   	nop
  40183b:	90                   	nop

000000000040183c <touch1>:
  40183c:	48 83 ec 08          	sub    $0x8,%rsp
  401840:	c7 05 92 3c 20 00 01 	movl   $0x1,0x203c92(%rip)        # 6054dc <vlevel>
  401847:	00 00 00 
  40184a:	bf 2e 32 40 00       	mov    $0x40322e,%edi
  40184f:	e8 1c f4 ff ff       	callq  400c70 <puts@plt>
  401854:	bf 01 00 00 00       	mov    $0x1,%edi
  401859:	e8 c8 05 00 00       	callq  401e26 <validate>
  40185e:	bf 00 00 00 00       	mov    $0x0,%edi
  401863:	e8 88 f5 ff ff       	callq  400df0 <exit@plt>

0000000000401868 <touch2>:
  401868:	48 83 ec 08          	sub    $0x8,%rsp
  40186c:	89 fa                	mov    %edi,%edx
  40186e:	c7 05 64 3c 20 00 02 	movl   $0x2,0x203c64(%rip)        # 6054dc <vlevel>
  401875:	00 00 00 
  401878:	3b 3d 66 3c 20 00    	cmp    0x203c66(%rip),%edi        # 6054e4 <cookie>
  40187e:	75 20                	jne    4018a0 <touch2+0x38>
  401880:	be 50 32 40 00       	mov    $0x403250,%esi
  401885:	bf 01 00 00 00       	mov    $0x1,%edi
  40188a:	b8 00 00 00 00       	mov    $0x0,%eax
  40188f:	e8 0c f5 ff ff       	callq  400da0 <__printf_chk@plt>
  401894:	bf 02 00 00 00       	mov    $0x2,%edi
  401899:	e8 88 05 00 00       	callq  401e26 <validate>
  40189e:	eb 1e                	jmp    4018be <touch2+0x56>
  4018a0:	be 78 32 40 00       	mov    $0x403278,%esi
  4018a5:	bf 01 00 00 00       	mov    $0x1,%edi
  4018aa:	b8 00 00 00 00       	mov    $0x0,%eax
  4018af:	e8 ec f4 ff ff       	callq  400da0 <__printf_chk@plt>
  4018b4:	bf 02 00 00 00       	mov    $0x2,%edi
  4018b9:	e8 2a 06 00 00       	callq  401ee8 <fail>
  4018be:	bf 00 00 00 00       	mov    $0x0,%edi
  4018c3:	e8 28 f5 ff ff       	callq  400df0 <exit@plt>

00000000004018c8 <hexmatch>:
  4018c8:	41 54                	push   %r12
  4018ca:	55                   	push   %rbp
  4018cb:	53                   	push   %rbx
  4018cc:	48 83 c4 80          	add    $0xffffffffffffff80,%rsp
  4018d0:	41 89 fc             	mov    %edi,%r12d
  4018d3:	48 89 f5             	mov    %rsi,%rbp
  4018d6:	64 48 8b 04 25 28 00 	mov    %fs:0x28,%rax
  4018dd:	00 00 
  4018df:	48 89 44 24 78       	mov    %rax,0x78(%rsp)
  4018e4:	31 c0                	xor    %eax,%eax
  4018e6:	e8 75 f4 ff ff       	callq  400d60 <random@plt>
  4018eb:	48 89 c1             	mov    %rax,%rcx
  4018ee:	48 ba 0b d7 a3 70 3d 	movabs $0xa3d70a3d70a3d70b,%rdx
  4018f5:	0a d7 a3 
  4018f8:	48 f7 ea             	imul   %rdx
  4018fb:	48 01 ca             	add    %rcx,%rdx
  4018fe:	48 c1 fa 06          	sar    $0x6,%rdx
  401902:	48 89 c8             	mov    %rcx,%rax
  401905:	48 c1 f8 3f          	sar    $0x3f,%rax
  401909:	48 29 c2             	sub    %rax,%rdx
  40190c:	48 8d 04 92          	lea    (%rdx,%rdx,4),%rax
  401910:	48 8d 04 80          	lea    (%rax,%rax,4),%rax
  401914:	48 c1 e0 02          	shl    $0x2,%rax
  401918:	48 29 c1             	sub    %rax,%rcx
  40191b:	48 8d 1c 0c          	lea    (%rsp,%rcx,1),%rbx
  40191f:	45 89 e0             	mov    %r12d,%r8d
  401922:	b9 4b 32 40 00       	mov    $0x40324b,%ecx
  401927:	48 c7 c2 ff ff ff ff 	mov    $0xffffffffffffffff,%rdx
  40192e:	be 01 00 00 00       	mov    $0x1,%esi
  401933:	48 89 df             	mov    %rbx,%rdi
  401936:	b8 00 00 00 00       	mov    $0x0,%eax
  40193b:	e8 e0 f4 ff ff       	callq  400e20 <__sprintf_chk@plt>
  401940:	ba 09 00 00 00       	mov    $0x9,%edx
  401945:	48 89 de             	mov    %rbx,%rsi
  401948:	48 89 ef             	mov    %rbp,%rdi
  40194b:	e8 00 f3 ff ff       	callq  400c50 <strncmp@plt>
  401950:	85 c0                	test   %eax,%eax
  401952:	0f 94 c0             	sete   %al
  401955:	0f b6 c0             	movzbl %al,%eax
  401958:	48 8b 74 24 78       	mov    0x78(%rsp),%rsi
  40195d:	64 48 33 34 25 28 00 	xor    %fs:0x28,%rsi
  401964:	00 00 
  401966:	74 05                	je     40196d <hexmatch+0xa5>
  401968:	e8 23 f3 ff ff       	callq  400c90 <__stack_chk_fail@plt>
  40196d:	48 83 ec 80          	sub    $0xffffffffffffff80,%rsp
  401971:	5b                   	pop    %rbx
  401972:	5d                   	pop    %rbp
  401973:	41 5c                	pop    %r12
  401975:	c3                   	retq   

0000000000401976 <touch3>:
  401976:	53                   	push   %rbx
  401977:	48 89 fb             	mov    %rdi,%rbx
  40197a:	c7 05 58 3b 20 00 03 	movl   $0x3,0x203b58(%rip)        # 6054dc <vlevel>
  401981:	00 00 00 
  401984:	48 89 fe             	mov    %rdi,%rsi
  401987:	8b 3d 57 3b 20 00    	mov    0x203b57(%rip),%edi        # 6054e4 <cookie>
  40198d:	e8 36 ff ff ff       	callq  4018c8 <hexmatch>
  401992:	85 c0                	test   %eax,%eax
  401994:	74 23                	je     4019b9 <touch3+0x43>
  401996:	48 89 da             	mov    %rbx,%rdx
  401999:	be a0 32 40 00       	mov    $0x4032a0,%esi
  40199e:	bf 01 00 00 00       	mov    $0x1,%edi
  4019a3:	b8 00 00 00 00       	mov    $0x0,%eax
  4019a8:	e8 f3 f3 ff ff       	callq  400da0 <__printf_chk@plt>
  4019ad:	bf 03 00 00 00       	mov    $0x3,%edi
  4019b2:	e8 6f 04 00 00       	callq  401e26 <validate>
  4019b7:	eb 21                	jmp    4019da <touch3+0x64>
  4019b9:	48 89 da             	mov    %rbx,%rdx
  4019bc:	be c8 32 40 00       	mov    $0x4032c8,%esi
  4019c1:	bf 01 00 00 00       	mov    $0x1,%edi
  4019c6:	b8 00 00 00 00       	mov    $0x0,%eax
  4019cb:	e8 d0 f3 ff ff       	callq  400da0 <__printf_chk@plt>
  4019d0:	bf 03 00 00 00       	mov    $0x3,%edi
  4019d5:	e8 0e 05 00 00       	callq  401ee8 <fail>
  4019da:	bf 00 00 00 00       	mov    $0x0,%edi
  4019df:	e8 0c f4 ff ff       	callq  400df0 <exit@plt>

00000000004019e4 <test>:
  4019e4:	48 83 ec 08          	sub    $0x8,%rsp
  4019e8:	b8 00 00 00 00       	mov    $0x0,%eax
  4019ed:	e8 32 fe ff ff       	callq  401824 <getbuf>
  4019f2:	89 c2                	mov    %eax,%edx
  4019f4:	be f0 32 40 00       	mov    $0x4032f0,%esi
  4019f9:	bf 01 00 00 00       	mov    $0x1,%edi
  4019fe:	b8 00 00 00 00       	mov    $0x0,%eax
  401a03:	e8 98 f3 ff ff       	callq  400da0 <__printf_chk@plt>
  401a08:	48 83 c4 08          	add    $0x8,%rsp
  401a0c:	c3                   	retq   
  401a0d:	90                   	nop
  401a0e:	90                   	nop
  401a0f:	90                   	nop

0000000000401a10 <start_farm>:
  401a10:	b8 01 00 00 00       	mov    $0x1,%eax
  401a15:	c3                   	retq   

0000000000401a16 <getval_465>:
  401a16:	b8 4c 89 c7 c3       	mov    $0xc3c7894c,%eax
  401a1b:	c3                   	retq   

0000000000401a1c <setval_137>:
  401a1c:	c7 07 48 89 c7 90    	movl   $0x90c78948,(%rdi)
  401a22:	c3                   	retq   

0000000000401a23 <setval_365>:
  401a23:	c7 07 48 89 c7 92    	movl   $0x92c78948,(%rdi)
  401a29:	c3                   	retq   

0000000000401a2a <setval_123>:
  401a2a:	c7 07 08 58 90 90    	movl   $0x90905808,(%rdi)
  401a30:	c3                   	retq   

0000000000401a31 <addval_307>:
  401a31:	8d 87 99 58 90 c3    	lea    -0x3c6fa767(%rdi),%eax
  401a37:	c3                   	retq   

0000000000401a38 <getval_165>:
  401a38:	b8 6e 50 c3 ce       	mov    $0xcec3506e,%eax
  401a3d:	c3                   	retq   

0000000000401a3e <addval_115>:
  401a3e:	8d 87 48 89 c7 90    	lea    -0x6f3876b8(%rdi),%eax
  401a44:	c3                   	retq   

0000000000401a45 <addval_273>:
  401a45:	8d 87 04 00 58 91    	lea    -0x6ea7fffc(%rdi),%eax
  401a4b:	c3                   	retq   

0000000000401a4c <mid_farm>:
  401a4c:	b8 01 00 00 00       	mov    $0x1,%eax
  401a51:	c3                   	retq   

0000000000401a52 <add_xy>:
  401a52:	48 8d 04 37          	lea    (%rdi,%rsi,1),%rax
  401a56:	c3                   	retq   

0000000000401a57 <setval_154>:
  401a57:	c7 07 89 d1 20 db    	movl   $0xdb20d189,(%rdi)
  401a5d:	c3                   	retq   

0000000000401a5e <setval_377>:
  401a5e:	c7 07 8d c2 38 d2    	movl   $0xd238c28d,(%rdi)
  401a64:	c3                   	retq   

0000000000401a65 <getval_239>:
  401a65:	b8 48 89 e0 c1       	mov    $0xc1e08948,%eax
  401a6a:	c3                   	retq   

0000000000401a6b <addval_416>:
  401a6b:	8d 87 48 89 e0 c2    	lea    -0x3d1f76b8(%rdi),%eax
  401a71:	c3                   	retq   

0000000000401a72 <getval_248>:
  401a72:	b8 09 d1 c3 18       	mov    $0x18c3d109,%eax
  401a77:	c3                   	retq   

0000000000401a78 <getval_339>:
  401a78:	b8 89 d1 90 c1       	mov    $0xc190d189,%eax
  401a7d:	c3                   	retq   

0000000000401a7e <setval_498>:
  401a7e:	c7 07 89 ce a4 c0    	movl   $0xc0a4ce89,(%rdi)
  401a84:	c3                   	retq   

0000000000401a85 <getval_386>:
  401a85:	b8 a9 d1 08 db       	mov    $0xdb08d1a9,%eax
  401a8a:	c3                   	retq   

0000000000401a8b <setval_212>:
  401a8b:	c7 07 c8 89 e0 c3    	movl   $0xc3e089c8,(%rdi)
  401a91:	c3                   	retq   

0000000000401a92 <setval_464>:
  401a92:	c7 07 89 ce 18 db    	movl   $0xdb18ce89,(%rdi)
  401a98:	c3                   	retq   

0000000000401a99 <getval_150>:
  401a99:	b8 89 c2 c4 d2       	mov    $0xd2c4c289,%eax
  401a9e:	c3                   	retq   

0000000000401a9f <getval_352>:
  401a9f:	b8 48 89 e0 90       	mov    $0x90e08948,%eax
  401aa4:	c3                   	retq   

0000000000401aa5 <setval_252>:
  401aa5:	c7 07 89 ce 00 d2    	movl   $0xd200ce89,(%rdi)
  401aab:	c3                   	retq   

0000000000401aac <setval_271>:
  401aac:	c7 07 c9 ce 20 d2    	movl   $0xd220cec9,(%rdi)
  401ab2:	c3                   	retq   

0000000000401ab3 <getval_402>:
  401ab3:	b8 89 d1 60 d2       	mov    $0xd260d189,%eax
  401ab8:	c3                   	retq   

0000000000401ab9 <addval_395>:
  401ab9:	8d 87 89 c2 94 d2    	lea    -0x2d6b3d77(%rdi),%eax
  401abf:	c3                   	retq   

0000000000401ac0 <setval_280>:
  401ac0:	c7 07 7f 48 a9 e0    	movl   $0xe0a9487f,(%rdi)
  401ac6:	c3                   	retq   

0000000000401ac7 <setval_430>:
  401ac7:	c7 07 89 ce a4 c9    	movl   $0xc9a4ce89,(%rdi)
  401acd:	c3                   	retq   

0000000000401ace <getval_285>:
  401ace:	b8 89 d1 20 c9       	mov    $0xc920d189,%eax
  401ad3:	c3                   	retq   

0000000000401ad4 <getval_438>:
  401ad4:	b8 89 ce 08 d2       	mov    $0xd208ce89,%eax
  401ad9:	c3                   	retq   

0000000000401ada <addval_378>:
  401ada:	8d 87 89 c2 90 c7    	lea    -0x386f3d77(%rdi),%eax
  401ae0:	c3                   	retq   

0000000000401ae1 <getval_270>:
  401ae1:	b8 4c 89 e0 c3       	mov    $0xc3e0894c,%eax
  401ae6:	c3                   	retq   

0000000000401ae7 <addval_152>:
  401ae7:	8d 87 89 c2 90 c3    	lea    -0x3c6f3d77(%rdi),%eax
  401aed:	c3                   	retq   

0000000000401aee <getval_403>:
  401aee:	b8 49 89 e0 c3       	mov    $0xc3e08949,%eax
  401af3:	c3                   	retq   

0000000000401af4 <setval_136>:
  401af4:	c7 07 89 ce c4 d2    	movl   $0xd2c4ce89,(%rdi)
  401afa:	c3                   	retq   

0000000000401afb <getval_302>:
  401afb:	b8 48 89 e0 c3       	mov    $0xc3e08948,%eax
  401b00:	c3                   	retq   

0000000000401b01 <getval_258>:
  401b01:	b8 89 c2 08 db       	mov    $0xdb08c289,%eax
  401b06:	c3                   	retq   

0000000000401b07 <addval_325>:
  401b07:	8d 87 14 89 c2 91    	lea    -0x6e3d76ec(%rdi),%eax
  401b0d:	c3                   	retq   

0000000000401b0e <setval_497>:
  401b0e:	c7 07 89 c2 60 c0    	movl   $0xc060c289,(%rdi)
  401b14:	c3                   	retq   

0000000000401b15 <addval_453>:
  401b15:	8d 87 89 ce 84 db    	lea    -0x247b3177(%rdi),%eax
  401b1b:	c3                   	retq   

0000000000401b1c <setval_279>:
  401b1c:	c7 07 09 d1 84 db    	movl   $0xdb84d109,(%rdi)
  401b22:	c3                   	retq   

0000000000401b23 <getval_407>:
  401b23:	b8 09 d1 20 d2       	mov    $0xd220d109,%eax
  401b28:	c3                   	retq   

0000000000401b29 <end_farm>:
  401b29:	b8 01 00 00 00       	mov    $0x1,%eax
  401b2e:	c3                   	retq   
  401b2f:	90                   	nop

0000000000401b30 <save_char>:
  401b30:	8b 05 ce 45 20 00    	mov    0x2045ce(%rip),%eax        # 606104 <gets_cnt>
  401b36:	3d ff 03 00 00       	cmp    $0x3ff,%eax
  401b3b:	7f 49                	jg     401b86 <save_char+0x56>
  401b3d:	8d 14 40             	lea    (%rax,%rax,2),%edx
  401b40:	89 f9                	mov    %edi,%ecx
  401b42:	c0 e9 04             	shr    $0x4,%cl
  401b45:	83 e1 0f             	and    $0xf,%ecx
  401b48:	0f b6 b1 10 36 40 00 	movzbl 0x403610(%rcx),%esi
  401b4f:	48 63 ca             	movslq %edx,%rcx
  401b52:	40 88 b1 00 55 60 00 	mov    %sil,0x605500(%rcx)
  401b59:	8d 4a 01             	lea    0x1(%rdx),%ecx
  401b5c:	83 e7 0f             	and    $0xf,%edi
  401b5f:	0f b6 b7 10 36 40 00 	movzbl 0x403610(%rdi),%esi
  401b66:	48 63 c9             	movslq %ecx,%rcx
  401b69:	40 88 b1 00 55 60 00 	mov    %sil,0x605500(%rcx)
  401b70:	83 c2 02             	add    $0x2,%edx
  401b73:	48 63 d2             	movslq %edx,%rdx
  401b76:	c6 82 00 55 60 00 20 	movb   $0x20,0x605500(%rdx)
  401b7d:	83 c0 01             	add    $0x1,%eax
  401b80:	89 05 7e 45 20 00    	mov    %eax,0x20457e(%rip)        # 606104 <gets_cnt>
  401b86:	f3 c3                	repz retq 

0000000000401b88 <save_term>:
  401b88:	8b 05 76 45 20 00    	mov    0x204576(%rip),%eax        # 606104 <gets_cnt>
  401b8e:	8d 04 40             	lea    (%rax,%rax,2),%eax
  401b91:	48 98                	cltq   
  401b93:	c6 80 00 55 60 00 00 	movb   $0x0,0x605500(%rax)
  401b9a:	c3                   	retq   

0000000000401b9b <check_fail>:
  401b9b:	48 83 ec 08          	sub    $0x8,%rsp
  401b9f:	0f be 15 62 45 20 00 	movsbl 0x204562(%rip),%edx        # 606108 <target_prefix>
  401ba6:	41 b8 00 55 60 00    	mov    $0x605500,%r8d
  401bac:	8b 0d 26 39 20 00    	mov    0x203926(%rip),%ecx        # 6054d8 <check_level>
  401bb2:	be 13 33 40 00       	mov    $0x403313,%esi
  401bb7:	bf 01 00 00 00       	mov    $0x1,%edi
  401bbc:	b8 00 00 00 00       	mov    $0x0,%eax
  401bc1:	e8 da f1 ff ff       	callq  400da0 <__printf_chk@plt>
  401bc6:	bf 01 00 00 00       	mov    $0x1,%edi
  401bcb:	e8 20 f2 ff ff       	callq  400df0 <exit@plt>

0000000000401bd0 <Gets>:
  401bd0:	41 54                	push   %r12
  401bd2:	55                   	push   %rbp
  401bd3:	53                   	push   %rbx
  401bd4:	49 89 fc             	mov    %rdi,%r12
  401bd7:	c7 05 23 45 20 00 00 	movl   $0x0,0x204523(%rip)        # 606104 <gets_cnt>
  401bde:	00 00 00 
  401be1:	48 89 fb             	mov    %rdi,%rbx
  401be4:	eb 11                	jmp    401bf7 <Gets+0x27>
  401be6:	48 8d 6b 01          	lea    0x1(%rbx),%rbp
  401bea:	88 03                	mov    %al,(%rbx)
  401bec:	0f b6 f8             	movzbl %al,%edi
  401bef:	e8 3c ff ff ff       	callq  401b30 <save_char>
  401bf4:	48 89 eb             	mov    %rbp,%rbx
  401bf7:	48 8b 3d d2 38 20 00 	mov    0x2038d2(%rip),%rdi        # 6054d0 <infile>
  401bfe:	e8 6d f1 ff ff       	callq  400d70 <_IO_getc@plt>
  401c03:	83 f8 ff             	cmp    $0xffffffff,%eax
  401c06:	74 05                	je     401c0d <Gets+0x3d>
  401c08:	83 f8 0a             	cmp    $0xa,%eax
  401c0b:	75 d9                	jne    401be6 <Gets+0x16>
  401c0d:	c6 03 00             	movb   $0x0,(%rbx)
  401c10:	b8 00 00 00 00       	mov    $0x0,%eax
  401c15:	e8 6e ff ff ff       	callq  401b88 <save_term>
  401c1a:	4c 89 e0             	mov    %r12,%rax
  401c1d:	5b                   	pop    %rbx
  401c1e:	5d                   	pop    %rbp
  401c1f:	41 5c                	pop    %r12
  401c21:	c3                   	retq   

0000000000401c22 <notify_server>:
  401c22:	53                   	push   %rbx
  401c23:	48 81 ec 30 40 00 00 	sub    $0x4030,%rsp
  401c2a:	64 48 8b 04 25 28 00 	mov    %fs:0x28,%rax
  401c31:	00 00 
  401c33:	48 89 84 24 28 40 00 	mov    %rax,0x4028(%rsp)
  401c3a:	00 
  401c3b:	31 c0                	xor    %eax,%eax
  401c3d:	83 3d a4 38 20 00 00 	cmpl   $0x0,0x2038a4(%rip)        # 6054e8 <is_checker>
  401c44:	0f 85 bb 01 00 00    	jne    401e05 <notify_server+0x1e3>
  401c4a:	89 fb                	mov    %edi,%ebx
  401c4c:	8b 05 b2 44 20 00    	mov    0x2044b2(%rip),%eax        # 606104 <gets_cnt>
  401c52:	83 c0 64             	add    $0x64,%eax
  401c55:	3d 00 20 00 00       	cmp    $0x2000,%eax
  401c5a:	7e 1e                	jle    401c7a <notify_server+0x58>
  401c5c:	be 48 34 40 00       	mov    $0x403448,%esi
  401c61:	bf 01 00 00 00       	mov    $0x1,%edi
  401c66:	b8 00 00 00 00       	mov    $0x0,%eax
  401c6b:	e8 30 f1 ff ff       	callq  400da0 <__printf_chk@plt>
  401c70:	bf 01 00 00 00       	mov    $0x1,%edi
  401c75:	e8 76 f1 ff ff       	callq  400df0 <exit@plt>
  401c7a:	0f be 05 87 44 20 00 	movsbl 0x204487(%rip),%eax        # 606108 <target_prefix>
  401c81:	83 3d 00 38 20 00 00 	cmpl   $0x0,0x203800(%rip)        # 605488 <notify>
  401c88:	74 08                	je     401c92 <notify_server+0x70>
  401c8a:	8b 15 50 38 20 00    	mov    0x203850(%rip),%edx        # 6054e0 <authkey>
  401c90:	eb 05                	jmp    401c97 <notify_server+0x75>
  401c92:	ba ff ff ff ff       	mov    $0xffffffff,%edx
  401c97:	85 db                	test   %ebx,%ebx
  401c99:	74 08                	je     401ca3 <notify_server+0x81>
  401c9b:	41 b9 29 33 40 00    	mov    $0x403329,%r9d
  401ca1:	eb 06                	jmp    401ca9 <notify_server+0x87>
  401ca3:	41 b9 2e 33 40 00    	mov    $0x40332e,%r9d
  401ca9:	48 c7 44 24 18 00 55 	movq   $0x605500,0x18(%rsp)
  401cb0:	60 00 
  401cb2:	89 74 24 10          	mov    %esi,0x10(%rsp)
  401cb6:	89 44 24 08          	mov    %eax,0x8(%rsp)
  401cba:	89 14 24             	mov    %edx,(%rsp)
  401cbd:	44 8b 05 84 34 20 00 	mov    0x203484(%rip),%r8d        # 605148 <target_id>
  401cc4:	b9 33 33 40 00       	mov    $0x403333,%ecx
  401cc9:	ba 00 20 00 00       	mov    $0x2000,%edx
  401cce:	be 01 00 00 00       	mov    $0x1,%esi
  401cd3:	48 8d 7c 24 20       	lea    0x20(%rsp),%rdi
  401cd8:	b8 00 00 00 00       	mov    $0x0,%eax
  401cdd:	e8 3e f1 ff ff       	callq  400e20 <__sprintf_chk@plt>
  401ce2:	83 3d 9f 37 20 00 00 	cmpl   $0x0,0x20379f(%rip)        # 605488 <notify>
  401ce9:	0f 84 86 00 00 00    	je     401d75 <notify_server+0x153>
  401cef:	85 db                	test   %ebx,%ebx
  401cf1:	74 70                	je     401d63 <notify_server+0x141>
  401cf3:	4c 8d 8c 24 20 20 00 	lea    0x2020(%rsp),%r9
  401cfa:	00 
  401cfb:	41 b8 00 00 00 00    	mov    $0x0,%r8d
  401d01:	48 8d 4c 24 20       	lea    0x20(%rsp),%rcx
  401d06:	48 8b 15 43 34 20 00 	mov    0x203443(%rip),%rdx        # 605150 <lab>
  401d0d:	48 8b 35 44 34 20 00 	mov    0x203444(%rip),%rsi        # 605158 <course>
  401d14:	48 8b 3d 25 34 20 00 	mov    0x203425(%rip),%rdi        # 605140 <user_id>
  401d1b:	e8 8f 10 00 00       	callq  402daf <driver_post>
  401d20:	85 c0                	test   %eax,%eax
  401d22:	79 26                	jns    401d4a <notify_server+0x128>
  401d24:	48 8d 94 24 20 20 00 	lea    0x2020(%rsp),%rdx
  401d2b:	00 
  401d2c:	be 4f 33 40 00       	mov    $0x40334f,%esi
  401d31:	bf 01 00 00 00       	mov    $0x1,%edi
  401d36:	b8 00 00 00 00       	mov    $0x0,%eax
  401d3b:	e8 60 f0 ff ff       	callq  400da0 <__printf_chk@plt>
  401d40:	bf 01 00 00 00       	mov    $0x1,%edi
  401d45:	e8 a6 f0 ff ff       	callq  400df0 <exit@plt>
  401d4a:	bf 78 34 40 00       	mov    $0x403478,%edi
  401d4f:	e8 1c ef ff ff       	callq  400c70 <puts@plt>
  401d54:	bf 5b 33 40 00       	mov    $0x40335b,%edi
  401d59:	e8 12 ef ff ff       	callq  400c70 <puts@plt>
  401d5e:	e9 a2 00 00 00       	jmpq   401e05 <notify_server+0x1e3>
  401d63:	bf 65 33 40 00       	mov    $0x403365,%edi
  401d68:	e8 03 ef ff ff       	callq  400c70 <puts@plt>
  401d6d:	0f 1f 00             	nopl   (%rax)
  401d70:	e9 90 00 00 00       	jmpq   401e05 <notify_server+0x1e3>
  401d75:	85 db                	test   %ebx,%ebx
  401d77:	74 09                	je     401d82 <notify_server+0x160>
  401d79:	ba 29 33 40 00       	mov    $0x403329,%edx
  401d7e:	66 90                	xchg   %ax,%ax
  401d80:	eb 05                	jmp    401d87 <notify_server+0x165>
  401d82:	ba 2e 33 40 00       	mov    $0x40332e,%edx
  401d87:	be b0 34 40 00       	mov    $0x4034b0,%esi
  401d8c:	bf 01 00 00 00       	mov    $0x1,%edi
  401d91:	b8 00 00 00 00       	mov    $0x0,%eax
  401d96:	e8 05 f0 ff ff       	callq  400da0 <__printf_chk@plt>
  401d9b:	48 8b 15 9e 33 20 00 	mov    0x20339e(%rip),%rdx        # 605140 <user_id>
  401da2:	be 6c 33 40 00       	mov    $0x40336c,%esi
  401da7:	bf 01 00 00 00       	mov    $0x1,%edi
  401dac:	b8 00 00 00 00       	mov    $0x0,%eax
  401db1:	e8 ea ef ff ff       	callq  400da0 <__printf_chk@plt>
  401db6:	48 8b 15 9b 33 20 00 	mov    0x20339b(%rip),%rdx        # 605158 <course>
  401dbd:	be 79 33 40 00       	mov    $0x403379,%esi
  401dc2:	bf 01 00 00 00       	mov    $0x1,%edi
  401dc7:	b8 00 00 00 00       	mov    $0x0,%eax
  401dcc:	e8 cf ef ff ff       	callq  400da0 <__printf_chk@plt>
  401dd1:	48 8b 15 78 33 20 00 	mov    0x203378(%rip),%rdx        # 605150 <lab>
  401dd8:	be 85 33 40 00       	mov    $0x403385,%esi
  401ddd:	bf 01 00 00 00       	mov    $0x1,%edi
  401de2:	b8 00 00 00 00       	mov    $0x0,%eax
  401de7:	e8 b4 ef ff ff       	callq  400da0 <__printf_chk@plt>
  401dec:	48 8d 54 24 20       	lea    0x20(%rsp),%rdx
  401df1:	be 8e 33 40 00       	mov    $0x40338e,%esi
  401df6:	bf 01 00 00 00       	mov    $0x1,%edi
  401dfb:	b8 00 00 00 00       	mov    $0x0,%eax
  401e00:	e8 9b ef ff ff       	callq  400da0 <__printf_chk@plt>
  401e05:	48 8b 84 24 28 40 00 	mov    0x4028(%rsp),%rax
  401e0c:	00 
  401e0d:	64 48 33 04 25 28 00 	xor    %fs:0x28,%rax
  401e14:	00 00 
  401e16:	74 05                	je     401e1d <notify_server+0x1fb>
  401e18:	e8 73 ee ff ff       	callq  400c90 <__stack_chk_fail@plt>
  401e1d:	48 81 c4 30 40 00 00 	add    $0x4030,%rsp
  401e24:	5b                   	pop    %rbx
  401e25:	c3                   	retq   

0000000000401e26 <validate>:
  401e26:	53                   	push   %rbx
  401e27:	89 fb                	mov    %edi,%ebx
  401e29:	83 3d b8 36 20 00 00 	cmpl   $0x0,0x2036b8(%rip)        # 6054e8 <is_checker>
  401e30:	74 6b                	je     401e9d <validate+0x77>
  401e32:	39 3d a4 36 20 00    	cmp    %edi,0x2036a4(%rip)        # 6054dc <vlevel>
  401e38:	74 14                	je     401e4e <validate+0x28>
  401e3a:	bf 9a 33 40 00       	mov    $0x40339a,%edi
  401e3f:	e8 2c ee ff ff       	callq  400c70 <puts@plt>
  401e44:	b8 00 00 00 00       	mov    $0x0,%eax
  401e49:	e8 4d fd ff ff       	callq  401b9b <check_fail>
  401e4e:	8b 15 84 36 20 00    	mov    0x203684(%rip),%edx        # 6054d8 <check_level>
  401e54:	39 fa                	cmp    %edi,%edx
  401e56:	74 20                	je     401e78 <validate+0x52>
  401e58:	89 f9                	mov    %edi,%ecx
  401e5a:	be d8 34 40 00       	mov    $0x4034d8,%esi
  401e5f:	bf 01 00 00 00       	mov    $0x1,%edi
  401e64:	b8 00 00 00 00       	mov    $0x0,%eax
  401e69:	e8 32 ef ff ff       	callq  400da0 <__printf_chk@plt>
  401e6e:	b8 00 00 00 00       	mov    $0x0,%eax
  401e73:	e8 23 fd ff ff       	callq  401b9b <check_fail>
  401e78:	0f be 15 89 42 20 00 	movsbl 0x204289(%rip),%edx        # 606108 <target_prefix>
  401e7f:	41 b8 00 55 60 00    	mov    $0x605500,%r8d
  401e85:	89 f9                	mov    %edi,%ecx
  401e87:	be b8 33 40 00       	mov    $0x4033b8,%esi
  401e8c:	bf 01 00 00 00       	mov    $0x1,%edi
  401e91:	b8 00 00 00 00       	mov    $0x0,%eax
  401e96:	e8 05 ef ff ff       	callq  400da0 <__printf_chk@plt>
  401e9b:	eb 49                	jmp    401ee6 <validate+0xc0>
  401e9d:	39 3d 39 36 20 00    	cmp    %edi,0x203639(%rip)        # 6054dc <vlevel>
  401ea3:	74 18                	je     401ebd <validate+0x97>
  401ea5:	bf 9a 33 40 00       	mov    $0x40339a,%edi
  401eaa:	e8 c1 ed ff ff       	callq  400c70 <puts@plt>
  401eaf:	89 de                	mov    %ebx,%esi
  401eb1:	bf 00 00 00 00       	mov    $0x0,%edi
  401eb6:	e8 67 fd ff ff       	callq  401c22 <notify_server>
  401ebb:	eb 29                	jmp    401ee6 <validate+0xc0>
  401ebd:	0f be 0d 44 42 20 00 	movsbl 0x204244(%rip),%ecx        # 606108 <target_prefix>
  401ec4:	89 fa                	mov    %edi,%edx
  401ec6:	be 00 35 40 00       	mov    $0x403500,%esi
  401ecb:	bf 01 00 00 00       	mov    $0x1,%edi
  401ed0:	b8 00 00 00 00       	mov    $0x0,%eax
  401ed5:	e8 c6 ee ff ff       	callq  400da0 <__printf_chk@plt>
  401eda:	89 de                	mov    %ebx,%esi
  401edc:	bf 01 00 00 00       	mov    $0x1,%edi
  401ee1:	e8 3c fd ff ff       	callq  401c22 <notify_server>
  401ee6:	5b                   	pop    %rbx
  401ee7:	c3                   	retq   

0000000000401ee8 <fail>:
  401ee8:	48 83 ec 08          	sub    $0x8,%rsp
  401eec:	83 3d f5 35 20 00 00 	cmpl   $0x0,0x2035f5(%rip)        # 6054e8 <is_checker>
  401ef3:	74 0a                	je     401eff <fail+0x17>
  401ef5:	b8 00 00 00 00       	mov    $0x0,%eax
  401efa:	e8 9c fc ff ff       	callq  401b9b <check_fail>
  401eff:	89 fe                	mov    %edi,%esi
  401f01:	bf 00 00 00 00       	mov    $0x0,%edi
  401f06:	e8 17 fd ff ff       	callq  401c22 <notify_server>
  401f0b:	48 83 c4 08          	add    $0x8,%rsp
  401f0f:	c3                   	retq   

0000000000401f10 <bushandler>:
  401f10:	48 83 ec 08          	sub    $0x8,%rsp
  401f14:	83 3d cd 35 20 00 00 	cmpl   $0x0,0x2035cd(%rip)        # 6054e8 <is_checker>
  401f1b:	74 14                	je     401f31 <bushandler+0x21>
  401f1d:	bf cd 33 40 00       	mov    $0x4033cd,%edi
  401f22:	e8 49 ed ff ff       	callq  400c70 <puts@plt>
  401f27:	b8 00 00 00 00       	mov    $0x0,%eax
  401f2c:	e8 6a fc ff ff       	callq  401b9b <check_fail>
  401f31:	bf 38 35 40 00       	mov    $0x403538,%edi
  401f36:	e8 35 ed ff ff       	callq  400c70 <puts@plt>
  401f3b:	bf d7 33 40 00       	mov    $0x4033d7,%edi
  401f40:	e8 2b ed ff ff       	callq  400c70 <puts@plt>
  401f45:	be 00 00 00 00       	mov    $0x0,%esi
  401f4a:	bf 00 00 00 00       	mov    $0x0,%edi
  401f4f:	e8 ce fc ff ff       	callq  401c22 <notify_server>
  401f54:	bf 01 00 00 00       	mov    $0x1,%edi
  401f59:	e8 92 ee ff ff       	callq  400df0 <exit@plt>

0000000000401f5e <seghandler>:
  401f5e:	48 83 ec 08          	sub    $0x8,%rsp
  401f62:	83 3d 7f 35 20 00 00 	cmpl   $0x0,0x20357f(%rip)        # 6054e8 <is_checker>
  401f69:	74 14                	je     401f7f <seghandler+0x21>
  401f6b:	bf ed 33 40 00       	mov    $0x4033ed,%edi
  401f70:	e8 fb ec ff ff       	callq  400c70 <puts@plt>
  401f75:	b8 00 00 00 00       	mov    $0x0,%eax
  401f7a:	e8 1c fc ff ff       	callq  401b9b <check_fail>
  401f7f:	bf 58 35 40 00       	mov    $0x403558,%edi
  401f84:	e8 e7 ec ff ff       	callq  400c70 <puts@plt>
  401f89:	bf d7 33 40 00       	mov    $0x4033d7,%edi
  401f8e:	e8 dd ec ff ff       	callq  400c70 <puts@plt>
  401f93:	be 00 00 00 00       	mov    $0x0,%esi
  401f98:	bf 00 00 00 00       	mov    $0x0,%edi
  401f9d:	e8 80 fc ff ff       	callq  401c22 <notify_server>
  401fa2:	bf 01 00 00 00       	mov    $0x1,%edi
  401fa7:	e8 44 ee ff ff       	callq  400df0 <exit@plt>

0000000000401fac <illegalhandler>:
  401fac:	48 83 ec 08          	sub    $0x8,%rsp
  401fb0:	83 3d 31 35 20 00 00 	cmpl   $0x0,0x203531(%rip)        # 6054e8 <is_checker>
  401fb7:	74 14                	je     401fcd <illegalhandler+0x21>
  401fb9:	bf 00 34 40 00       	mov    $0x403400,%edi
  401fbe:	e8 ad ec ff ff       	callq  400c70 <puts@plt>
  401fc3:	b8 00 00 00 00       	mov    $0x0,%eax
  401fc8:	e8 ce fb ff ff       	callq  401b9b <check_fail>
  401fcd:	bf 80 35 40 00       	mov    $0x403580,%edi
  401fd2:	e8 99 ec ff ff       	callq  400c70 <puts@plt>
  401fd7:	bf d7 33 40 00       	mov    $0x4033d7,%edi
  401fdc:	e8 8f ec ff ff       	callq  400c70 <puts@plt>
  401fe1:	be 00 00 00 00       	mov    $0x0,%esi
  401fe6:	bf 00 00 00 00       	mov    $0x0,%edi
  401feb:	e8 32 fc ff ff       	callq  401c22 <notify_server>
  401ff0:	bf 01 00 00 00       	mov    $0x1,%edi
  401ff5:	e8 f6 ed ff ff       	callq  400df0 <exit@plt>

0000000000401ffa <sigalrmhandler>:
  401ffa:	48 83 ec 08          	sub    $0x8,%rsp
  401ffe:	83 3d e3 34 20 00 00 	cmpl   $0x0,0x2034e3(%rip)        # 6054e8 <is_checker>
  402005:	74 14                	je     40201b <sigalrmhandler+0x21>
  402007:	bf 14 34 40 00       	mov    $0x403414,%edi
  40200c:	e8 5f ec ff ff       	callq  400c70 <puts@plt>
  402011:	b8 00 00 00 00       	mov    $0x0,%eax
  402016:	e8 80 fb ff ff       	callq  401b9b <check_fail>
  40201b:	ba 05 00 00 00       	mov    $0x5,%edx
  402020:	be b0 35 40 00       	mov    $0x4035b0,%esi
  402025:	bf 01 00 00 00       	mov    $0x1,%edi
  40202a:	b8 00 00 00 00       	mov    $0x0,%eax
  40202f:	e8 6c ed ff ff       	callq  400da0 <__printf_chk@plt>
  402034:	be 00 00 00 00       	mov    $0x0,%esi
  402039:	bf 00 00 00 00       	mov    $0x0,%edi
  40203e:	e8 df fb ff ff       	callq  401c22 <notify_server>
  402043:	bf 01 00 00 00       	mov    $0x1,%edi
  402048:	e8 a3 ed ff ff       	callq  400df0 <exit@plt>

000000000040204d <launch>:
  40204d:	55                   	push   %rbp
  40204e:	48 89 e5             	mov    %rsp,%rbp
  402051:	48 83 ec 10          	sub    $0x10,%rsp
  402055:	48 89 fa             	mov    %rdi,%rdx
  402058:	64 48 8b 04 25 28 00 	mov    %fs:0x28,%rax
  40205f:	00 00 
  402061:	48 89 45 f8          	mov    %rax,-0x8(%rbp)
  402065:	31 c0                	xor    %eax,%eax
  402067:	48 8d 47 1e          	lea    0x1e(%rdi),%rax
  40206b:	48 83 e0 f0          	and    $0xfffffffffffffff0,%rax
  40206f:	48 29 c4             	sub    %rax,%rsp
  402072:	48 8d 7c 24 0f       	lea    0xf(%rsp),%rdi
  402077:	48 83 e7 f0          	and    $0xfffffffffffffff0,%rdi
  40207b:	be f4 00 00 00       	mov    $0xf4,%esi
  402080:	e8 2b ec ff ff       	callq  400cb0 <memset@plt>
  402085:	48 8b 05 14 34 20 00 	mov    0x203414(%rip),%rax        # 6054a0 <stdin@@GLIBC_2.2.5>
  40208c:	48 39 05 3d 34 20 00 	cmp    %rax,0x20343d(%rip)        # 6054d0 <infile>
  402093:	75 14                	jne    4020a9 <launch+0x5c>
  402095:	be 1c 34 40 00       	mov    $0x40341c,%esi
  40209a:	bf 01 00 00 00       	mov    $0x1,%edi
  40209f:	b8 00 00 00 00       	mov    $0x0,%eax
  4020a4:	e8 f7 ec ff ff       	callq  400da0 <__printf_chk@plt>
  4020a9:	c7 05 29 34 20 00 00 	movl   $0x0,0x203429(%rip)        # 6054dc <vlevel>
  4020b0:	00 00 00 
  4020b3:	b8 00 00 00 00       	mov    $0x0,%eax
  4020b8:	e8 27 f9 ff ff       	callq  4019e4 <test>
  4020bd:	83 3d 24 34 20 00 00 	cmpl   $0x0,0x203424(%rip)        # 6054e8 <is_checker>
  4020c4:	74 14                	je     4020da <launch+0x8d>
  4020c6:	bf 29 34 40 00       	mov    $0x403429,%edi
  4020cb:	e8 a0 eb ff ff       	callq  400c70 <puts@plt>
  4020d0:	b8 00 00 00 00       	mov    $0x0,%eax
  4020d5:	e8 c1 fa ff ff       	callq  401b9b <check_fail>
  4020da:	bf 34 34 40 00       	mov    $0x403434,%edi
  4020df:	e8 8c eb ff ff       	callq  400c70 <puts@plt>
  4020e4:	48 8b 45 f8          	mov    -0x8(%rbp),%rax
  4020e8:	64 48 33 04 25 28 00 	xor    %fs:0x28,%rax
  4020ef:	00 00 
  4020f1:	74 05                	je     4020f8 <launch+0xab>
  4020f3:	e8 98 eb ff ff       	callq  400c90 <__stack_chk_fail@plt>
  4020f8:	c9                   	leaveq 
  4020f9:	c3                   	retq   

00000000004020fa <stable_launch>:
  4020fa:	53                   	push   %rbx
  4020fb:	48 89 3d c6 33 20 00 	mov    %rdi,0x2033c6(%rip)        # 6054c8 <global_offset>
  402102:	41 b9 00 00 00 00    	mov    $0x0,%r9d
  402108:	41 b8 00 00 00 00    	mov    $0x0,%r8d
  40210e:	b9 32 01 00 00       	mov    $0x132,%ecx
  402113:	ba 07 00 00 00       	mov    $0x7,%edx
  402118:	be 00 00 10 00       	mov    $0x100000,%esi
  40211d:	bf 00 60 58 55       	mov    $0x55586000,%edi
  402122:	e8 79 eb ff ff       	callq  400ca0 <mmap@plt>
  402127:	48 89 c3             	mov    %rax,%rbx
  40212a:	48 3d 00 60 58 55    	cmp    $0x55586000,%rax
  402130:	74 37                	je     402169 <stable_launch+0x6f>
  402132:	be 00 00 10 00       	mov    $0x100000,%esi
  402137:	48 89 c7             	mov    %rax,%rdi
  40213a:	e8 51 ec ff ff       	callq  400d90 <munmap@plt>
  40213f:	b9 00 60 58 55       	mov    $0x55586000,%ecx
  402144:	ba e8 35 40 00       	mov    $0x4035e8,%edx
  402149:	be 01 00 00 00       	mov    $0x1,%esi
  40214e:	48 8b 3d 5b 33 20 00 	mov    0x20335b(%rip),%rdi        # 6054b0 <stderr@@GLIBC_2.2.5>
  402155:	b8 00 00 00 00       	mov    $0x0,%eax
  40215a:	e8 b1 ec ff ff       	callq  400e10 <__fprintf_chk@plt>
  40215f:	bf 01 00 00 00       	mov    $0x1,%edi
  402164:	e8 87 ec ff ff       	callq  400df0 <exit@plt>
  402169:	48 8d 90 f8 ff 0f 00 	lea    0xffff8(%rax),%rdx
  402170:	48 89 15 99 3f 20 00 	mov    %rdx,0x203f99(%rip)        # 606110 <stack_top>
  402177:	48 89 e0             	mov    %rsp,%rax
  40217a:	48 89 d4             	mov    %rdx,%rsp
  40217d:	48 89 c2             	mov    %rax,%rdx
  402180:	48 89 15 39 33 20 00 	mov    %rdx,0x203339(%rip)        # 6054c0 <global_save_stack>
  402187:	48 8b 3d 3a 33 20 00 	mov    0x20333a(%rip),%rdi        # 6054c8 <global_offset>
  40218e:	e8 ba fe ff ff       	callq  40204d <launch>
  402193:	48 8b 05 26 33 20 00 	mov    0x203326(%rip),%rax        # 6054c0 <global_save_stack>
  40219a:	48 89 c4             	mov    %rax,%rsp
  40219d:	be 00 00 10 00       	mov    $0x100000,%esi
  4021a2:	48 89 df             	mov    %rbx,%rdi
  4021a5:	e8 e6 eb ff ff       	callq  400d90 <munmap@plt>
  4021aa:	5b                   	pop    %rbx
  4021ab:	c3                   	retq   
  4021ac:	90                   	nop
  4021ad:	90                   	nop
  4021ae:	90                   	nop
  4021af:	90                   	nop

00000000004021b0 <rio_readinitb>:
  4021b0:	89 37                	mov    %esi,(%rdi)
  4021b2:	c7 47 04 00 00 00 00 	movl   $0x0,0x4(%rdi)
  4021b9:	48 8d 47 10          	lea    0x10(%rdi),%rax
  4021bd:	48 89 47 08          	mov    %rax,0x8(%rdi)
  4021c1:	c3                   	retq   

00000000004021c2 <sigalrm_handler>:
  4021c2:	48 83 ec 08          	sub    $0x8,%rsp
  4021c6:	b9 00 00 00 00       	mov    $0x0,%ecx
  4021cb:	ba 20 36 40 00       	mov    $0x403620,%edx
  4021d0:	be 01 00 00 00       	mov    $0x1,%esi
  4021d5:	48 8b 3d d4 32 20 00 	mov    0x2032d4(%rip),%rdi        # 6054b0 <stderr@@GLIBC_2.2.5>
  4021dc:	b8 00 00 00 00       	mov    $0x0,%eax
  4021e1:	e8 2a ec ff ff       	callq  400e10 <__fprintf_chk@plt>
  4021e6:	bf 01 00 00 00       	mov    $0x1,%edi
  4021eb:	e8 00 ec ff ff       	callq  400df0 <exit@plt>

00000000004021f0 <rio_writen>:
  4021f0:	41 55                	push   %r13
  4021f2:	41 54                	push   %r12
  4021f4:	55                   	push   %rbp
  4021f5:	53                   	push   %rbx
  4021f6:	48 83 ec 08          	sub    $0x8,%rsp
  4021fa:	41 89 fc             	mov    %edi,%r12d
  4021fd:	48 89 f5             	mov    %rsi,%rbp
  402200:	49 89 d5             	mov    %rdx,%r13
  402203:	48 89 d3             	mov    %rdx,%rbx
  402206:	eb 28                	jmp    402230 <rio_writen+0x40>
  402208:	48 89 da             	mov    %rbx,%rdx
  40220b:	48 89 ee             	mov    %rbp,%rsi
  40220e:	44 89 e7             	mov    %r12d,%edi
  402211:	e8 6a ea ff ff       	callq  400c80 <write@plt>
  402216:	48 85 c0             	test   %rax,%rax
  402219:	7f 0f                	jg     40222a <rio_writen+0x3a>
  40221b:	e8 10 ea ff ff       	callq  400c30 <__errno_location@plt>
  402220:	83 38 04             	cmpl   $0x4,(%rax)
  402223:	75 15                	jne    40223a <rio_writen+0x4a>
  402225:	b8 00 00 00 00       	mov    $0x0,%eax
  40222a:	48 29 c3             	sub    %rax,%rbx
  40222d:	48 01 c5             	add    %rax,%rbp
  402230:	48 85 db             	test   %rbx,%rbx
  402233:	75 d3                	jne    402208 <rio_writen+0x18>
  402235:	4c 89 e8             	mov    %r13,%rax
  402238:	eb 07                	jmp    402241 <rio_writen+0x51>
  40223a:	48 c7 c0 ff ff ff ff 	mov    $0xffffffffffffffff,%rax
  402241:	48 83 c4 08          	add    $0x8,%rsp
  402245:	5b                   	pop    %rbx
  402246:	5d                   	pop    %rbp
  402247:	41 5c                	pop    %r12
  402249:	41 5d                	pop    %r13
  40224b:	c3                   	retq   

000000000040224c <rio_read>:
  40224c:	41 56                	push   %r14
  40224e:	41 55                	push   %r13
  402250:	41 54                	push   %r12
  402252:	55                   	push   %rbp
  402253:	53                   	push   %rbx
  402254:	48 89 fb             	mov    %rdi,%rbx
  402257:	49 89 f6             	mov    %rsi,%r14
  40225a:	49 89 d5             	mov    %rdx,%r13
  40225d:	4c 8d 67 10          	lea    0x10(%rdi),%r12
  402261:	eb 2a                	jmp    40228d <rio_read+0x41>
  402263:	8b 3b                	mov    (%rbx),%edi
  402265:	ba 00 20 00 00       	mov    $0x2000,%edx
  40226a:	4c 89 e6             	mov    %r12,%rsi
  40226d:	e8 6e ea ff ff       	callq  400ce0 <read@plt>
  402272:	89 43 04             	mov    %eax,0x4(%rbx)
  402275:	85 c0                	test   %eax,%eax
  402277:	79 0c                	jns    402285 <rio_read+0x39>
  402279:	e8 b2 e9 ff ff       	callq  400c30 <__errno_location@plt>
  40227e:	83 38 04             	cmpl   $0x4,(%rax)
  402281:	74 0a                	je     40228d <rio_read+0x41>
  402283:	eb 37                	jmp    4022bc <rio_read+0x70>
  402285:	85 c0                	test   %eax,%eax
  402287:	74 3c                	je     4022c5 <rio_read+0x79>
  402289:	4c 89 63 08          	mov    %r12,0x8(%rbx)
  40228d:	8b 6b 04             	mov    0x4(%rbx),%ebp
  402290:	85 ed                	test   %ebp,%ebp
  402292:	7e cf                	jle    402263 <rio_read+0x17>
  402294:	89 e8                	mov    %ebp,%eax
  402296:	4c 39 e8             	cmp    %r13,%rax
  402299:	72 03                	jb     40229e <rio_read+0x52>
  40229b:	44 89 ed             	mov    %r13d,%ebp
  40229e:	4c 63 e5             	movslq %ebp,%r12
  4022a1:	48 8b 73 08          	mov    0x8(%rbx),%rsi
  4022a5:	4c 89 e2             	mov    %r12,%rdx
  4022a8:	4c 89 f7             	mov    %r14,%rdi
  4022ab:	e8 90 ea ff ff       	callq  400d40 <memcpy@plt>
  4022b0:	4c 01 63 08          	add    %r12,0x8(%rbx)
  4022b4:	29 6b 04             	sub    %ebp,0x4(%rbx)
  4022b7:	4c 89 e0             	mov    %r12,%rax
  4022ba:	eb 0e                	jmp    4022ca <rio_read+0x7e>
  4022bc:	48 c7 c0 ff ff ff ff 	mov    $0xffffffffffffffff,%rax
  4022c3:	eb 05                	jmp    4022ca <rio_read+0x7e>
  4022c5:	b8 00 00 00 00       	mov    $0x0,%eax
  4022ca:	5b                   	pop    %rbx
  4022cb:	5d                   	pop    %rbp
  4022cc:	41 5c                	pop    %r12
  4022ce:	41 5d                	pop    %r13
  4022d0:	41 5e                	pop    %r14
  4022d2:	c3                   	retq   

00000000004022d3 <rio_readlineb>:
  4022d3:	41 55                	push   %r13
  4022d5:	41 54                	push   %r12
  4022d7:	55                   	push   %rbp
  4022d8:	53                   	push   %rbx
  4022d9:	48 83 ec 18          	sub    $0x18,%rsp
  4022dd:	49 89 fd             	mov    %rdi,%r13
  4022e0:	48 89 f5             	mov    %rsi,%rbp
  4022e3:	49 89 d4             	mov    %rdx,%r12
  4022e6:	bb 01 00 00 00       	mov    $0x1,%ebx
  4022eb:	eb 3e                	jmp    40232b <rio_readlineb+0x58>
  4022ed:	ba 01 00 00 00       	mov    $0x1,%edx
  4022f2:	48 8d 74 24 0f       	lea    0xf(%rsp),%rsi
  4022f7:	4c 89 ef             	mov    %r13,%rdi
  4022fa:	e8 4d ff ff ff       	callq  40224c <rio_read>
  4022ff:	83 f8 01             	cmp    $0x1,%eax
  402302:	75 12                	jne    402316 <rio_readlineb+0x43>
  402304:	48 8d 55 01          	lea    0x1(%rbp),%rdx
  402308:	0f b6 44 24 0f       	movzbl 0xf(%rsp),%eax
  40230d:	88 45 00             	mov    %al,0x0(%rbp)
  402310:	3c 0a                	cmp    $0xa,%al
  402312:	75 10                	jne    402324 <rio_readlineb+0x51>
  402314:	eb 1c                	jmp    402332 <rio_readlineb+0x5f>
  402316:	85 c0                	test   %eax,%eax
  402318:	75 24                	jne    40233e <rio_readlineb+0x6b>
  40231a:	48 83 fb 01          	cmp    $0x1,%rbx
  40231e:	66 90                	xchg   %ax,%ax
  402320:	75 13                	jne    402335 <rio_readlineb+0x62>
  402322:	eb 23                	jmp    402347 <rio_readlineb+0x74>
  402324:	48 83 c3 01          	add    $0x1,%rbx
  402328:	48 89 d5             	mov    %rdx,%rbp
  40232b:	4c 39 e3             	cmp    %r12,%rbx
  40232e:	72 bd                	jb     4022ed <rio_readlineb+0x1a>
  402330:	eb 03                	jmp    402335 <rio_readlineb+0x62>
  402332:	48 89 d5             	mov    %rdx,%rbp
  402335:	c6 45 00 00          	movb   $0x0,0x0(%rbp)
  402339:	48 89 d8             	mov    %rbx,%rax
  40233c:	eb 0e                	jmp    40234c <rio_readlineb+0x79>
  40233e:	48 c7 c0 ff ff ff ff 	mov    $0xffffffffffffffff,%rax
  402345:	eb 05                	jmp    40234c <rio_readlineb+0x79>
  402347:	b8 00 00 00 00       	mov    $0x0,%eax
  40234c:	48 83 c4 18          	add    $0x18,%rsp
  402350:	5b                   	pop    %rbx
  402351:	5d                   	pop    %rbp
  402352:	41 5c                	pop    %r12
  402354:	41 5d                	pop    %r13
  402356:	c3                   	retq   

0000000000402357 <urlencode>:
  402357:	41 54                	push   %r12
  402359:	55                   	push   %rbp
  40235a:	53                   	push   %rbx
  40235b:	48 83 ec 10          	sub    $0x10,%rsp
  40235f:	48 89 fb             	mov    %rdi,%rbx
  402362:	48 89 f5             	mov    %rsi,%rbp
  402365:	64 48 8b 04 25 28 00 	mov    %fs:0x28,%rax
  40236c:	00 00 
  40236e:	48 89 44 24 08       	mov    %rax,0x8(%rsp)
  402373:	31 c0                	xor    %eax,%eax
  402375:	48 c7 c1 ff ff ff ff 	mov    $0xffffffffffffffff,%rcx
  40237c:	f2 ae                	repnz scas %es:(%rdi),%al
  40237e:	48 f7 d1             	not    %rcx
  402381:	8d 41 ff             	lea    -0x1(%rcx),%eax
  402384:	e9 aa 00 00 00       	jmpq   402433 <urlencode+0xdc>
  402389:	44 0f b6 03          	movzbl (%rbx),%r8d
  40238d:	41 80 f8 2a          	cmp    $0x2a,%r8b
  402391:	0f 94 c2             	sete   %dl
  402394:	41 80 f8 2d          	cmp    $0x2d,%r8b
  402398:	0f 94 c0             	sete   %al
  40239b:	08 c2                	or     %al,%dl
  40239d:	75 24                	jne    4023c3 <urlencode+0x6c>
  40239f:	41 80 f8 2e          	cmp    $0x2e,%r8b
  4023a3:	74 1e                	je     4023c3 <urlencode+0x6c>
  4023a5:	41 80 f8 5f          	cmp    $0x5f,%r8b
  4023a9:	74 18                	je     4023c3 <urlencode+0x6c>
  4023ab:	41 8d 40 d0          	lea    -0x30(%r8),%eax
  4023af:	3c 09                	cmp    $0x9,%al
  4023b1:	76 10                	jbe    4023c3 <urlencode+0x6c>
  4023b3:	41 8d 40 bf          	lea    -0x41(%r8),%eax
  4023b7:	3c 19                	cmp    $0x19,%al
  4023b9:	76 08                	jbe    4023c3 <urlencode+0x6c>
  4023bb:	41 8d 40 9f          	lea    -0x61(%r8),%eax
  4023bf:	3c 19                	cmp    $0x19,%al
  4023c1:	77 0a                	ja     4023cd <urlencode+0x76>
  4023c3:	44 88 45 00          	mov    %r8b,0x0(%rbp)
  4023c7:	48 8d 6d 01          	lea    0x1(%rbp),%rbp
  4023cb:	eb 5f                	jmp    40242c <urlencode+0xd5>
  4023cd:	41 80 f8 20          	cmp    $0x20,%r8b
  4023d1:	75 0a                	jne    4023dd <urlencode+0x86>
  4023d3:	c6 45 00 2b          	movb   $0x2b,0x0(%rbp)
  4023d7:	48 8d 6d 01          	lea    0x1(%rbp),%rbp
  4023db:	eb 4f                	jmp    40242c <urlencode+0xd5>
  4023dd:	41 8d 40 e0          	lea    -0x20(%r8),%eax
  4023e1:	3c 5f                	cmp    $0x5f,%al
  4023e3:	0f 96 c2             	setbe  %dl
  4023e6:	41 80 f8 09          	cmp    $0x9,%r8b
  4023ea:	0f 94 c0             	sete   %al
  4023ed:	08 c2                	or     %al,%dl
  4023ef:	74 50                	je     402441 <urlencode+0xea>
  4023f1:	45 0f b6 c0          	movzbl %r8b,%r8d
  4023f5:	b9 b8 36 40 00       	mov    $0x4036b8,%ecx
  4023fa:	ba 08 00 00 00       	mov    $0x8,%edx
  4023ff:	be 01 00 00 00       	mov    $0x1,%esi
  402404:	48 89 e7             	mov    %rsp,%rdi
  402407:	b8 00 00 00 00       	mov    $0x0,%eax
  40240c:	e8 0f ea ff ff       	callq  400e20 <__sprintf_chk@plt>
  402411:	0f b6 04 24          	movzbl (%rsp),%eax
  402415:	88 45 00             	mov    %al,0x0(%rbp)
  402418:	0f b6 44 24 01       	movzbl 0x1(%rsp),%eax
  40241d:	88 45 01             	mov    %al,0x1(%rbp)
  402420:	0f b6 44 24 02       	movzbl 0x2(%rsp),%eax
  402425:	88 45 02             	mov    %al,0x2(%rbp)
  402428:	48 8d 6d 03          	lea    0x3(%rbp),%rbp
  40242c:	48 83 c3 01          	add    $0x1,%rbx
  402430:	44 89 e0             	mov    %r12d,%eax
  402433:	44 8d 60 ff          	lea    -0x1(%rax),%r12d
  402437:	85 c0                	test   %eax,%eax
  402439:	0f 85 4a ff ff ff    	jne    402389 <urlencode+0x32>
  40243f:	eb 05                	jmp    402446 <urlencode+0xef>
  402441:	b8 ff ff ff ff       	mov    $0xffffffff,%eax
  402446:	48 8b 74 24 08       	mov    0x8(%rsp),%rsi
  40244b:	64 48 33 34 25 28 00 	xor    %fs:0x28,%rsi
  402452:	00 00 
  402454:	74 05                	je     40245b <urlencode+0x104>
  402456:	e8 35 e8 ff ff       	callq  400c90 <__stack_chk_fail@plt>
  40245b:	48 83 c4 10          	add    $0x10,%rsp
  40245f:	5b                   	pop    %rbx
  402460:	5d                   	pop    %rbp
  402461:	41 5c                	pop    %r12
  402463:	c3                   	retq   

0000000000402464 <submitr>:
  402464:	41 57                	push   %r15
  402466:	41 56                	push   %r14
  402468:	41 55                	push   %r13
  40246a:	41 54                	push   %r12
  40246c:	55                   	push   %rbp
  40246d:	53                   	push   %rbx
  40246e:	48 81 ec 68 a0 00 00 	sub    $0xa068,%rsp
  402475:	49 89 fc             	mov    %rdi,%r12
  402478:	89 74 24 14          	mov    %esi,0x14(%rsp)
  40247c:	49 89 d7             	mov    %rdx,%r15
  40247f:	49 89 ce             	mov    %rcx,%r14
  402482:	4c 89 44 24 18       	mov    %r8,0x18(%rsp)
  402487:	4d 89 cd             	mov    %r9,%r13
  40248a:	48 8b 9c 24 a0 a0 00 	mov    0xa0a0(%rsp),%rbx
  402491:	00 
  402492:	64 48 8b 04 25 28 00 	mov    %fs:0x28,%rax
  402499:	00 00 
  40249b:	48 89 84 24 58 a0 00 	mov    %rax,0xa058(%rsp)
  4024a2:	00 
  4024a3:	31 c0                	xor    %eax,%eax
  4024a5:	c7 44 24 2c 00 00 00 	movl   $0x0,0x2c(%rsp)
  4024ac:	00 
  4024ad:	ba 00 00 00 00       	mov    $0x0,%edx
  4024b2:	be 01 00 00 00       	mov    $0x1,%esi
  4024b7:	bf 02 00 00 00       	mov    $0x2,%edi
  4024bc:	e8 6f e9 ff ff       	callq  400e30 <socket@plt>
  4024c1:	89 c5                	mov    %eax,%ebp
  4024c3:	85 c0                	test   %eax,%eax
  4024c5:	79 4e                	jns    402515 <submitr+0xb1>
  4024c7:	48 b8 45 72 72 6f 72 	movabs $0x43203a726f727245,%rax
  4024ce:	3a 20 43 
  4024d1:	48 89 03             	mov    %rax,(%rbx)
  4024d4:	48 b8 6c 69 65 6e 74 	movabs $0x6e7520746e65696c,%rax
  4024db:	20 75 6e 
  4024de:	48 89 43 08          	mov    %rax,0x8(%rbx)
  4024e2:	48 b8 61 62 6c 65 20 	movabs $0x206f7420656c6261,%rax
  4024e9:	74 6f 20 
  4024ec:	48 89 43 10          	mov    %rax,0x10(%rbx)
  4024f0:	48 b8 63 72 65 61 74 	movabs $0x7320657461657263,%rax
  4024f7:	65 20 73 
  4024fa:	48 89 43 18          	mov    %rax,0x18(%rbx)
  4024fe:	c7 43 20 6f 63 6b 65 	movl   $0x656b636f,0x20(%rbx)
  402505:	66 c7 43 24 74 00    	movw   $0x74,0x24(%rbx)
  40250b:	b8 ff ff ff ff       	mov    $0xffffffff,%eax
  402510:	e9 55 06 00 00       	jmpq   402b6a <submitr+0x706>
  402515:	4c 89 e7             	mov    %r12,%rdi
  402518:	e8 f3 e7 ff ff       	callq  400d10 <gethostbyname@plt>
  40251d:	48 85 c0             	test   %rax,%rax
  402520:	75 67                	jne    402589 <submitr+0x125>
  402522:	48 b8 45 72 72 6f 72 	movabs $0x44203a726f727245,%rax
  402529:	3a 20 44 
  40252c:	48 89 03             	mov    %rax,(%rbx)
  40252f:	48 b8 4e 53 20 69 73 	movabs $0x6e7520736920534e,%rax
  402536:	20 75 6e 
  402539:	48 89 43 08          	mov    %rax,0x8(%rbx)
  40253d:	48 b8 61 62 6c 65 20 	movabs $0x206f7420656c6261,%rax
  402544:	74 6f 20 
  402547:	48 89 43 10          	mov    %rax,0x10(%rbx)
  40254b:	48 b8 72 65 73 6f 6c 	movabs $0x2065766c6f736572,%rax
  402552:	76 65 20 
  402555:	48 89 43 18          	mov    %rax,0x18(%rbx)
  402559:	48 b8 73 65 72 76 65 	movabs $0x6120726576726573,%rax
  402560:	72 20 61 
  402563:	48 89 43 20          	mov    %rax,0x20(%rbx)
  402567:	c7 43 28 64 64 72 65 	movl   $0x65726464,0x28(%rbx)
  40256e:	66 c7 43 2c 73 73    	movw   $0x7373,0x2c(%rbx)
  402574:	c6 43 2e 00          	movb   $0x0,0x2e(%rbx)
  402578:	89 ef                	mov    %ebp,%edi
  40257a:	e8 51 e7 ff ff       	callq  400cd0 <close@plt>
  40257f:	b8 ff ff ff ff       	mov    $0xffffffff,%eax
  402584:	e9 e1 05 00 00       	jmpq   402b6a <submitr+0x706>
  402589:	48 c7 44 24 30 00 00 	movq   $0x0,0x30(%rsp)
  402590:	00 00 
  402592:	48 c7 44 24 38 00 00 	movq   $0x0,0x38(%rsp)
  402599:	00 00 
  40259b:	66 c7 44 24 30 02 00 	movw   $0x2,0x30(%rsp)
  4025a2:	48 63 50 14          	movslq 0x14(%rax),%rdx
  4025a6:	48 8b 40 18          	mov    0x18(%rax),%rax
  4025aa:	48 8b 30             	mov    (%rax),%rsi
  4025ad:	48 8d 7c 24 34       	lea    0x34(%rsp),%rdi
  4025b2:	b9 0c 00 00 00       	mov    $0xc,%ecx
  4025b7:	e8 64 e7 ff ff       	callq  400d20 <__memmove_chk@plt>
  4025bc:	0f b7 44 24 14       	movzwl 0x14(%rsp),%eax
  4025c1:	66 c1 c8 08          	ror    $0x8,%ax
  4025c5:	66 89 44 24 32       	mov    %ax,0x32(%rsp)
  4025ca:	ba 10 00 00 00       	mov    $0x10,%edx
  4025cf:	48 8d 74 24 30       	lea    0x30(%rsp),%rsi
  4025d4:	89 ef                	mov    %ebp,%edi
  4025d6:	e8 25 e8 ff ff       	callq  400e00 <connect@plt>
  4025db:	85 c0                	test   %eax,%eax
  4025dd:	79 59                	jns    402638 <submitr+0x1d4>
  4025df:	48 b8 45 72 72 6f 72 	movabs $0x55203a726f727245,%rax
  4025e6:	3a 20 55 
  4025e9:	48 89 03             	mov    %rax,(%rbx)
  4025ec:	48 b8 6e 61 62 6c 65 	movabs $0x6f7420656c62616e,%rax
  4025f3:	20 74 6f 
  4025f6:	48 89 43 08          	mov    %rax,0x8(%rbx)
  4025fa:	48 b8 20 63 6f 6e 6e 	movabs $0x7463656e6e6f6320,%rax
  402601:	65 63 74 
  402604:	48 89 43 10          	mov    %rax,0x10(%rbx)
  402608:	48 b8 20 74 6f 20 74 	movabs $0x20656874206f7420,%rax
  40260f:	68 65 20 
  402612:	48 89 43 18          	mov    %rax,0x18(%rbx)
  402616:	c7 43 20 73 65 72 76 	movl   $0x76726573,0x20(%rbx)
  40261d:	66 c7 43 24 65 72    	movw   $0x7265,0x24(%rbx)
  402623:	c6 43 26 00          	movb   $0x0,0x26(%rbx)
  402627:	89 ef                	mov    %ebp,%edi
  402629:	e8 a2 e6 ff ff       	callq  400cd0 <close@plt>
  40262e:	b8 ff ff ff ff       	mov    $0xffffffff,%eax
  402633:	e9 32 05 00 00       	jmpq   402b6a <submitr+0x706>
  402638:	48 c7 c2 ff ff ff ff 	mov    $0xffffffffffffffff,%rdx
  40263f:	4c 89 ef             	mov    %r13,%rdi
  402642:	b8 00 00 00 00       	mov    $0x0,%eax
  402647:	48 89 d1             	mov    %rdx,%rcx
  40264a:	f2 ae                	repnz scas %es:(%rdi),%al
  40264c:	48 f7 d1             	not    %rcx
  40264f:	48 89 ce             	mov    %rcx,%rsi
  402652:	4c 89 ff             	mov    %r15,%rdi
  402655:	48 89 d1             	mov    %rdx,%rcx
  402658:	f2 ae                	repnz scas %es:(%rdi),%al
  40265a:	48 f7 d1             	not    %rcx
  40265d:	49 89 c8             	mov    %rcx,%r8
  402660:	4c 89 f7             	mov    %r14,%rdi
  402663:	48 89 d1             	mov    %rdx,%rcx
  402666:	f2 ae                	repnz scas %es:(%rdi),%al
  402668:	49 29 c8             	sub    %rcx,%r8
  40266b:	48 8b 7c 24 18       	mov    0x18(%rsp),%rdi
  402670:	48 89 d1             	mov    %rdx,%rcx
  402673:	f2 ae                	repnz scas %es:(%rdi),%al
  402675:	49 29 c8             	sub    %rcx,%r8
  402678:	48 8d 44 76 fd       	lea    -0x3(%rsi,%rsi,2),%rax
  40267d:	49 8d 44 00 7b       	lea    0x7b(%r8,%rax,1),%rax
  402682:	48 3d 00 20 00 00    	cmp    $0x2000,%rax
  402688:	76 72                	jbe    4026fc <submitr+0x298>
  40268a:	48 b8 45 72 72 6f 72 	movabs $0x52203a726f727245,%rax
  402691:	3a 20 52 
  402694:	48 89 03             	mov    %rax,(%rbx)
  402697:	48 b8 65 73 75 6c 74 	movabs $0x747320746c757365,%rax
  40269e:	20 73 74 
  4026a1:	48 89 43 08          	mov    %rax,0x8(%rbx)
  4026a5:	48 b8 72 69 6e 67 20 	movabs $0x6f6f7420676e6972,%rax
  4026ac:	74 6f 6f 
  4026af:	48 89 43 10          	mov    %rax,0x10(%rbx)
  4026b3:	48 b8 20 6c 61 72 67 	movabs $0x202e656772616c20,%rax
  4026ba:	65 2e 20 
  4026bd:	48 89 43 18          	mov    %rax,0x18(%rbx)
  4026c1:	48 b8 49 6e 63 72 65 	movabs $0x6573616572636e49,%rax
  4026c8:	61 73 65 
  4026cb:	48 89 43 20          	mov    %rax,0x20(%rbx)
  4026cf:	48 b8 20 53 55 42 4d 	movabs $0x5254494d42555320,%rax
  4026d6:	49 54 52 
  4026d9:	48 89 43 28          	mov    %rax,0x28(%rbx)
  4026dd:	48 b8 5f 4d 41 58 42 	movabs $0x46554258414d5f,%rax
  4026e4:	55 46 00 
  4026e7:	48 89 43 30          	mov    %rax,0x30(%rbx)
  4026eb:	89 ef                	mov    %ebp,%edi
  4026ed:	e8 de e5 ff ff       	callq  400cd0 <close@plt>
  4026f2:	b8 ff ff ff ff       	mov    $0xffffffff,%eax
  4026f7:	e9 6e 04 00 00       	jmpq   402b6a <submitr+0x706>
  4026fc:	48 8d b4 24 40 20 00 	lea    0x2040(%rsp),%rsi
  402703:	00 
  402704:	b9 00 04 00 00       	mov    $0x400,%ecx
  402709:	b8 00 00 00 00       	mov    $0x0,%eax
  40270e:	48 89 f7             	mov    %rsi,%rdi
  402711:	f3 48 ab             	rep stos %rax,%es:(%rdi)
  402714:	4c 89 ef             	mov    %r13,%rdi
  402717:	e8 3b fc ff ff       	callq  402357 <urlencode>
  40271c:	85 c0                	test   %eax,%eax
  40271e:	0f 89 8a 00 00 00    	jns    4027ae <submitr+0x34a>
  402724:	48 b8 45 72 72 6f 72 	movabs $0x52203a726f727245,%rax
  40272b:	3a 20 52 
  40272e:	48 89 03             	mov    %rax,(%rbx)
  402731:	48 b8 65 73 75 6c 74 	movabs $0x747320746c757365,%rax
  402738:	20 73 74 
  40273b:	48 89 43 08          	mov    %rax,0x8(%rbx)
  40273f:	48 b8 72 69 6e 67 20 	movabs $0x6e6f6320676e6972,%rax
  402746:	63 6f 6e 
  402749:	48 89 43 10          	mov    %rax,0x10(%rbx)
  40274d:	48 b8 74 61 69 6e 73 	movabs $0x6e6120736e696174,%rax
  402754:	20 61 6e 
  402757:	48 89 43 18          	mov    %rax,0x18(%rbx)
  40275b:	48 b8 20 69 6c 6c 65 	movabs $0x6c6167656c6c6920,%rax
  402762:	67 61 6c 
  402765:	48 89 43 20          	mov    %rax,0x20(%rbx)
  402769:	48 b8 20 6f 72 20 75 	movabs $0x72706e7520726f20,%rax
  402770:	6e 70 72 
  402773:	48 89 43 28          	mov    %rax,0x28(%rbx)
  402777:	48 b8 69 6e 74 61 62 	movabs $0x20656c6261746e69,%rax
  40277e:	6c 65 20 
  402781:	48 89 43 30          	mov    %rax,0x30(%rbx)
  402785:	48 b8 63 68 61 72 61 	movabs $0x6574636172616863,%rax
  40278c:	63 74 65 
  40278f:	48 89 43 38          	mov    %rax,0x38(%rbx)
  402793:	66 c7 43 40 72 2e    	movw   $0x2e72,0x40(%rbx)
  402799:	c6 43 42 00          	movb   $0x0,0x42(%rbx)
  40279d:	89 ef                	mov    %ebp,%edi
  40279f:	e8 2c e5 ff ff       	callq  400cd0 <close@plt>
  4027a4:	b8 ff ff ff ff       	mov    $0xffffffff,%eax
  4027a9:	e9 bc 03 00 00       	jmpq   402b6a <submitr+0x706>
  4027ae:	4c 89 64 24 08       	mov    %r12,0x8(%rsp)
  4027b3:	48 8d 84 24 40 20 00 	lea    0x2040(%rsp),%rax
  4027ba:	00 
  4027bb:	48 89 04 24          	mov    %rax,(%rsp)
  4027bf:	4d 89 f9             	mov    %r15,%r9
  4027c2:	4d 89 f0             	mov    %r14,%r8
  4027c5:	b9 48 36 40 00       	mov    $0x403648,%ecx
  4027ca:	ba 00 20 00 00       	mov    $0x2000,%edx
  4027cf:	be 01 00 00 00       	mov    $0x1,%esi
  4027d4:	48 8d 7c 24 40       	lea    0x40(%rsp),%rdi
  4027d9:	b8 00 00 00 00       	mov    $0x0,%eax
  4027de:	e8 3d e6 ff ff       	callq  400e20 <__sprintf_chk@plt>
  4027e3:	48 8d 7c 24 40       	lea    0x40(%rsp),%rdi
  4027e8:	b8 00 00 00 00       	mov    $0x0,%eax
  4027ed:	48 c7 c1 ff ff ff ff 	mov    $0xffffffffffffffff,%rcx
  4027f4:	f2 ae                	repnz scas %es:(%rdi),%al
  4027f6:	48 f7 d1             	not    %rcx
  4027f9:	48 8d 51 ff          	lea    -0x1(%rcx),%rdx
  4027fd:	48 8d 74 24 40       	lea    0x40(%rsp),%rsi
  402802:	89 ef                	mov    %ebp,%edi
  402804:	e8 e7 f9 ff ff       	callq  4021f0 <rio_writen>
  402809:	48 85 c0             	test   %rax,%rax
  40280c:	79 6e                	jns    40287c <submitr+0x418>
  40280e:	48 b8 45 72 72 6f 72 	movabs $0x43203a726f727245,%rax
  402815:	3a 20 43 
  402818:	48 89 03             	mov    %rax,(%rbx)
  40281b:	48 b8 6c 69 65 6e 74 	movabs $0x6e7520746e65696c,%rax
  402822:	20 75 6e 
  402825:	48 89 43 08          	mov    %rax,0x8(%rbx)
  402829:	48 b8 61 62 6c 65 20 	movabs $0x206f7420656c6261,%rax
  402830:	74 6f 20 
  402833:	48 89 43 10          	mov    %rax,0x10(%rbx)
  402837:	48 b8 77 72 69 74 65 	movabs $0x6f74206574697277,%rax
  40283e:	20 74 6f 
  402841:	48 89 43 18          	mov    %rax,0x18(%rbx)
  402845:	48 b8 20 74 68 65 20 	movabs $0x7365722065687420,%rax
  40284c:	72 65 73 
  40284f:	48 89 43 20          	mov    %rax,0x20(%rbx)
  402853:	48 b8 75 6c 74 20 73 	movabs $0x7672657320746c75,%rax
  40285a:	65 72 76 
  40285d:	48 89 43 28          	mov    %rax,0x28(%rbx)
  402861:	66 c7 43 30 65 72    	movw   $0x7265,0x30(%rbx)
  402867:	c6 43 32 00          	movb   $0x0,0x32(%rbx)
  40286b:	89 ef                	mov    %ebp,%edi
  40286d:	e8 5e e4 ff ff       	callq  400cd0 <close@plt>
  402872:	b8 ff ff ff ff       	mov    $0xffffffff,%eax
  402877:	e9 ee 02 00 00       	jmpq   402b6a <submitr+0x706>
  40287c:	89 ee                	mov    %ebp,%esi
  40287e:	48 8d bc 24 40 80 00 	lea    0x8040(%rsp),%rdi
  402885:	00 
  402886:	e8 25 f9 ff ff       	callq  4021b0 <rio_readinitb>
  40288b:	ba 00 20 00 00       	mov    $0x2000,%edx
  402890:	48 8d 74 24 40       	lea    0x40(%rsp),%rsi
  402895:	48 8d bc 24 40 80 00 	lea    0x8040(%rsp),%rdi
  40289c:	00 
  40289d:	e8 31 fa ff ff       	callq  4022d3 <rio_readlineb>
  4028a2:	48 85 c0             	test   %rax,%rax
  4028a5:	7f 7d                	jg     402924 <submitr+0x4c0>
  4028a7:	48 b8 45 72 72 6f 72 	movabs $0x43203a726f727245,%rax
  4028ae:	3a 20 43 
  4028b1:	48 89 03             	mov    %rax,(%rbx)
  4028b4:	48 b8 6c 69 65 6e 74 	movabs $0x6e7520746e65696c,%rax
  4028bb:	20 75 6e 
  4028be:	48 89 43 08          	mov    %rax,0x8(%rbx)
  4028c2:	48 b8 61 62 6c 65 20 	movabs $0x206f7420656c6261,%rax
  4028c9:	74 6f 20 
  4028cc:	48 89 43 10          	mov    %rax,0x10(%rbx)
  4028d0:	48 b8 72 65 61 64 20 	movabs $0x7269662064616572,%rax
  4028d7:	66 69 72 
  4028da:	48 89 43 18          	mov    %rax,0x18(%rbx)
  4028de:	48 b8 73 74 20 68 65 	movabs $0x6564616568207473,%rax
  4028e5:	61 64 65 
  4028e8:	48 89 43 20          	mov    %rax,0x20(%rbx)
  4028ec:	48 b8 72 20 66 72 6f 	movabs $0x72206d6f72662072,%rax
  4028f3:	6d 20 72 
  4028f6:	48 89 43 28          	mov    %rax,0x28(%rbx)
  4028fa:	48 b8 65 73 75 6c 74 	movabs $0x657320746c757365,%rax
  402901:	20 73 65 
  402904:	48 89 43 30          	mov    %rax,0x30(%rbx)
  402908:	c7 43 38 72 76 65 72 	movl   $0x72657672,0x38(%rbx)
  40290f:	c6 43 3c 00          	movb   $0x0,0x3c(%rbx)
  402913:	89 ef                	mov    %ebp,%edi
  402915:	e8 b6 e3 ff ff       	callq  400cd0 <close@plt>
  40291a:	b8 ff ff ff ff       	mov    $0xffffffff,%eax
  40291f:	e9 46 02 00 00       	jmpq   402b6a <submitr+0x706>
  402924:	4c 8d 84 24 40 60 00 	lea    0x6040(%rsp),%r8
  40292b:	00 
  40292c:	48 8d 4c 24 2c       	lea    0x2c(%rsp),%rcx
  402931:	48 8d 94 24 40 40 00 	lea    0x4040(%rsp),%rdx
  402938:	00 
  402939:	be bf 36 40 00       	mov    $0x4036bf,%esi
  40293e:	48 8d 7c 24 40       	lea    0x40(%rsp),%rdi
  402943:	b8 00 00 00 00       	mov    $0x0,%eax
  402948:	e8 33 e4 ff ff       	callq  400d80 <__isoc99_sscanf@plt>
  40294d:	e9 95 00 00 00       	jmpq   4029e7 <submitr+0x583>
  402952:	ba 00 20 00 00       	mov    $0x2000,%edx
  402957:	48 8d 74 24 40       	lea    0x40(%rsp),%rsi
  40295c:	48 8d bc 24 40 80 00 	lea    0x8040(%rsp),%rdi
  402963:	00 
  402964:	e8 6a f9 ff ff       	callq  4022d3 <rio_readlineb>
  402969:	48 85 c0             	test   %rax,%rax
  40296c:	7f 79                	jg     4029e7 <submitr+0x583>
  40296e:	48 b8 45 72 72 6f 72 	movabs $0x43203a726f727245,%rax
  402975:	3a 20 43 
  402978:	48 89 03             	mov    %rax,(%rbx)
  40297b:	48 b8 6c 69 65 6e 74 	movabs $0x6e7520746e65696c,%rax
  402982:	20 75 6e 
  402985:	48 89 43 08          	mov    %rax,0x8(%rbx)
  402989:	48 b8 61 62 6c 65 20 	movabs $0x206f7420656c6261,%rax
  402990:	74 6f 20 
  402993:	48 89 43 10          	mov    %rax,0x10(%rbx)
  402997:	48 b8 72 65 61 64 20 	movabs $0x6165682064616572,%rax
  40299e:	68 65 61 
  4029a1:	48 89 43 18          	mov    %rax,0x18(%rbx)
  4029a5:	48 b8 64 65 72 73 20 	movabs $0x6f72662073726564,%rax
  4029ac:	66 72 6f 
  4029af:	48 89 43 20          	mov    %rax,0x20(%rbx)
  4029b3:	48 b8 6d 20 74 68 65 	movabs $0x657220656874206d,%rax
  4029ba:	20 72 65 
  4029bd:	48 89 43 28          	mov    %rax,0x28(%rbx)
  4029c1:	48 b8 73 75 6c 74 20 	movabs $0x72657320746c7573,%rax
  4029c8:	73 65 72 
  4029cb:	48 89 43 30          	mov    %rax,0x30(%rbx)
  4029cf:	c7 43 38 76 65 72 00 	movl   $0x726576,0x38(%rbx)
  4029d6:	89 ef                	mov    %ebp,%edi
  4029d8:	e8 f3 e2 ff ff       	callq  400cd0 <close@plt>
  4029dd:	b8 ff ff ff ff       	mov    $0xffffffff,%eax
  4029e2:	e9 83 01 00 00       	jmpq   402b6a <submitr+0x706>
  4029e7:	0f b6 44 24 40       	movzbl 0x40(%rsp),%eax
  4029ec:	83 e8 0d             	sub    $0xd,%eax
  4029ef:	75 0f                	jne    402a00 <submitr+0x59c>
  4029f1:	0f b6 44 24 41       	movzbl 0x41(%rsp),%eax
  4029f6:	83 e8 0a             	sub    $0xa,%eax
  4029f9:	75 05                	jne    402a00 <submitr+0x59c>
  4029fb:	0f b6 44 24 42       	movzbl 0x42(%rsp),%eax
  402a00:	85 c0                	test   %eax,%eax
  402a02:	0f 85 4a ff ff ff    	jne    402952 <submitr+0x4ee>
  402a08:	ba 00 20 00 00       	mov    $0x2000,%edx
  402a0d:	48 8d 74 24 40       	lea    0x40(%rsp),%rsi
  402a12:	48 8d bc 24 40 80 00 	lea    0x8040(%rsp),%rdi
  402a19:	00 
  402a1a:	e8 b4 f8 ff ff       	callq  4022d3 <rio_readlineb>
  402a1f:	48 85 c0             	test   %rax,%rax
  402a22:	0f 8f 83 00 00 00    	jg     402aab <submitr+0x647>
  402a28:	48 b8 45 72 72 6f 72 	movabs $0x43203a726f727245,%rax
  402a2f:	3a 20 43 
  402a32:	48 89 03             	mov    %rax,(%rbx)
  402a35:	48 b8 6c 69 65 6e 74 	movabs $0x6e7520746e65696c,%rax
  402a3c:	20 75 6e 
  402a3f:	48 89 43 08          	mov    %rax,0x8(%rbx)
  402a43:	48 b8 61 62 6c 65 20 	movabs $0x206f7420656c6261,%rax
  402a4a:	74 6f 20 
  402a4d:	48 89 43 10          	mov    %rax,0x10(%rbx)
  402a51:	48 b8 72 65 61 64 20 	movabs $0x6174732064616572,%rax
  402a58:	73 74 61 
  402a5b:	48 89 43 18          	mov    %rax,0x18(%rbx)
  402a5f:	48 b8 74 75 73 20 6d 	movabs $0x7373656d20737574,%rax
  402a66:	65 73 73 
  402a69:	48 89 43 20          	mov    %rax,0x20(%rbx)
  402a6d:	48 b8 61 67 65 20 66 	movabs $0x6d6f726620656761,%rax
  402a74:	72 6f 6d 
  402a77:	48 89 43 28          	mov    %rax,0x28(%rbx)
  402a7b:	48 b8 20 72 65 73 75 	movabs $0x20746c7573657220,%rax
  402a82:	6c 74 20 
  402a85:	48 89 43 30          	mov    %rax,0x30(%rbx)
  402a89:	c7 43 38 73 65 72 76 	movl   $0x76726573,0x38(%rbx)
  402a90:	66 c7 43 3c 65 72    	movw   $0x7265,0x3c(%rbx)
  402a96:	c6 43 3e 00          	movb   $0x0,0x3e(%rbx)
  402a9a:	89 ef                	mov    %ebp,%edi
  402a9c:	e8 2f e2 ff ff       	callq  400cd0 <close@plt>
  402aa1:	b8 ff ff ff ff       	mov    $0xffffffff,%eax
  402aa6:	e9 bf 00 00 00       	jmpq   402b6a <submitr+0x706>
  402aab:	44 8b 44 24 2c       	mov    0x2c(%rsp),%r8d
  402ab0:	41 81 f8 c8 00 00 00 	cmp    $0xc8,%r8d
  402ab7:	74 34                	je     402aed <submitr+0x689>
  402ab9:	4c 8d 8c 24 40 60 00 	lea    0x6040(%rsp),%r9
  402ac0:	00 
  402ac1:	b9 88 36 40 00       	mov    $0x403688,%ecx
  402ac6:	48 c7 c2 ff ff ff ff 	mov    $0xffffffffffffffff,%rdx
  402acd:	be 01 00 00 00       	mov    $0x1,%esi
  402ad2:	48 89 df             	mov    %rbx,%rdi
  402ad5:	b8 00 00 00 00       	mov    $0x0,%eax
  402ada:	e8 41 e3 ff ff       	callq  400e20 <__sprintf_chk@plt>
  402adf:	89 ef                	mov    %ebp,%edi
  402ae1:	e8 ea e1 ff ff       	callq  400cd0 <close@plt>
  402ae6:	b8 ff ff ff ff       	mov    $0xffffffff,%eax
  402aeb:	eb 7d                	jmp    402b6a <submitr+0x706>
  402aed:	48 8d 74 24 40       	lea    0x40(%rsp),%rsi
  402af2:	48 89 df             	mov    %rbx,%rdi
  402af5:	e8 66 e1 ff ff       	callq  400c60 <strcpy@plt>
  402afa:	89 ef                	mov    %ebp,%edi
  402afc:	e8 cf e1 ff ff       	callq  400cd0 <close@plt>
  402b01:	0f b6 03             	movzbl (%rbx),%eax
  402b04:	83 e8 4f             	sub    $0x4f,%eax
  402b07:	75 18                	jne    402b21 <submitr+0x6bd>
  402b09:	0f b6 53 01          	movzbl 0x1(%rbx),%edx
  402b0d:	83 ea 4b             	sub    $0x4b,%edx
  402b10:	75 11                	jne    402b23 <submitr+0x6bf>
  402b12:	0f b6 53 02          	movzbl 0x2(%rbx),%edx
  402b16:	83 ea 0a             	sub    $0xa,%edx
  402b19:	75 08                	jne    402b23 <submitr+0x6bf>
  402b1b:	0f b6 53 03          	movzbl 0x3(%rbx),%edx
  402b1f:	eb 02                	jmp    402b23 <submitr+0x6bf>
  402b21:	89 c2                	mov    %eax,%edx
  402b23:	85 d2                	test   %edx,%edx
  402b25:	74 30                	je     402b57 <submitr+0x6f3>
  402b27:	bf d0 36 40 00       	mov    $0x4036d0,%edi
  402b2c:	b9 05 00 00 00       	mov    $0x5,%ecx
  402b31:	48 89 de             	mov    %rbx,%rsi
  402b34:	f3 a6                	repz cmpsb %es:(%rdi),%ds:(%rsi)
  402b36:	0f 97 c1             	seta   %cl
  402b39:	0f 92 c2             	setb   %dl
  402b3c:	38 d1                	cmp    %dl,%cl
  402b3e:	74 1e                	je     402b5e <submitr+0x6fa>
  402b40:	85 c0                	test   %eax,%eax
  402b42:	75 0d                	jne    402b51 <submitr+0x6ed>
  402b44:	0f b6 43 01          	movzbl 0x1(%rbx),%eax
  402b48:	83 e8 4b             	sub    $0x4b,%eax
  402b4b:	75 04                	jne    402b51 <submitr+0x6ed>
  402b4d:	0f b6 43 02          	movzbl 0x2(%rbx),%eax
  402b51:	85 c0                	test   %eax,%eax
  402b53:	75 10                	jne    402b65 <submitr+0x701>
  402b55:	eb 13                	jmp    402b6a <submitr+0x706>
  402b57:	b8 00 00 00 00       	mov    $0x0,%eax
  402b5c:	eb 0c                	jmp    402b6a <submitr+0x706>
  402b5e:	b8 00 00 00 00       	mov    $0x0,%eax
  402b63:	eb 05                	jmp    402b6a <submitr+0x706>
  402b65:	b8 ff ff ff ff       	mov    $0xffffffff,%eax
  402b6a:	48 8b 9c 24 58 a0 00 	mov    0xa058(%rsp),%rbx
  402b71:	00 
  402b72:	64 48 33 1c 25 28 00 	xor    %fs:0x28,%rbx
  402b79:	00 00 
  402b7b:	74 05                	je     402b82 <submitr+0x71e>
  402b7d:	e8 0e e1 ff ff       	callq  400c90 <__stack_chk_fail@plt>
  402b82:	48 81 c4 68 a0 00 00 	add    $0xa068,%rsp
  402b89:	5b                   	pop    %rbx
  402b8a:	5d                   	pop    %rbp
  402b8b:	41 5c                	pop    %r12
  402b8d:	41 5d                	pop    %r13
  402b8f:	41 5e                	pop    %r14
  402b91:	41 5f                	pop    %r15
  402b93:	c3                   	retq   

0000000000402b94 <init_timeout>:
  402b94:	53                   	push   %rbx
  402b95:	89 fb                	mov    %edi,%ebx
  402b97:	85 ff                	test   %edi,%edi
  402b99:	74 1f                	je     402bba <init_timeout+0x26>
  402b9b:	85 ff                	test   %edi,%edi
  402b9d:	79 05                	jns    402ba4 <init_timeout+0x10>
  402b9f:	bb 00 00 00 00       	mov    $0x0,%ebx
  402ba4:	be c2 21 40 00       	mov    $0x4021c2,%esi
  402ba9:	bf 0e 00 00 00       	mov    $0xe,%edi
  402bae:	e8 4d e1 ff ff       	callq  400d00 <signal@plt>
  402bb3:	89 df                	mov    %ebx,%edi
  402bb5:	e8 06 e1 ff ff       	callq  400cc0 <alarm@plt>
  402bba:	5b                   	pop    %rbx
  402bbb:	c3                   	retq   

0000000000402bbc <init_driver>:
  402bbc:	55                   	push   %rbp
  402bbd:	53                   	push   %rbx
  402bbe:	48 83 ec 28          	sub    $0x28,%rsp
  402bc2:	48 89 fd             	mov    %rdi,%rbp
  402bc5:	64 48 8b 04 25 28 00 	mov    %fs:0x28,%rax
  402bcc:	00 00 
  402bce:	48 89 44 24 18       	mov    %rax,0x18(%rsp)
  402bd3:	31 c0                	xor    %eax,%eax
  402bd5:	be 01 00 00 00       	mov    $0x1,%esi
  402bda:	bf 0d 00 00 00       	mov    $0xd,%edi
  402bdf:	e8 1c e1 ff ff       	callq  400d00 <signal@plt>
  402be4:	be 01 00 00 00       	mov    $0x1,%esi
  402be9:	bf 1d 00 00 00       	mov    $0x1d,%edi
  402bee:	e8 0d e1 ff ff       	callq  400d00 <signal@plt>
  402bf3:	be 01 00 00 00       	mov    $0x1,%esi
  402bf8:	bf 1d 00 00 00       	mov    $0x1d,%edi
  402bfd:	e8 fe e0 ff ff       	callq  400d00 <signal@plt>
  402c02:	ba 00 00 00 00       	mov    $0x0,%edx
  402c07:	be 01 00 00 00       	mov    $0x1,%esi
  402c0c:	bf 02 00 00 00       	mov    $0x2,%edi
  402c11:	e8 1a e2 ff ff       	callq  400e30 <socket@plt>
  402c16:	89 c3                	mov    %eax,%ebx
  402c18:	85 c0                	test   %eax,%eax
  402c1a:	79 4f                	jns    402c6b <init_driver+0xaf>
  402c1c:	48 b8 45 72 72 6f 72 	movabs $0x43203a726f727245,%rax
  402c23:	3a 20 43 
  402c26:	48 89 45 00          	mov    %rax,0x0(%rbp)
  402c2a:	48 b8 6c 69 65 6e 74 	movabs $0x6e7520746e65696c,%rax
  402c31:	20 75 6e 
  402c34:	48 89 45 08          	mov    %rax,0x8(%rbp)
  402c38:	48 b8 61 62 6c 65 20 	movabs $0x206f7420656c6261,%rax
  402c3f:	74 6f 20 
  402c42:	48 89 45 10          	mov    %rax,0x10(%rbp)
  402c46:	48 b8 63 72 65 61 74 	movabs $0x7320657461657263,%rax
  402c4d:	65 20 73 
  402c50:	48 89 45 18          	mov    %rax,0x18(%rbp)
  402c54:	c7 45 20 6f 63 6b 65 	movl   $0x656b636f,0x20(%rbp)
  402c5b:	66 c7 45 24 74 00    	movw   $0x74,0x24(%rbp)
  402c61:	b8 ff ff ff ff       	mov    $0xffffffff,%eax
  402c66:	e9 28 01 00 00       	jmpq   402d93 <init_driver+0x1d7>
  402c6b:	bf d5 36 40 00       	mov    $0x4036d5,%edi
  402c70:	e8 9b e0 ff ff       	callq  400d10 <gethostbyname@plt>
  402c75:	48 85 c0             	test   %rax,%rax
  402c78:	75 68                	jne    402ce2 <init_driver+0x126>
  402c7a:	48 b8 45 72 72 6f 72 	movabs $0x44203a726f727245,%rax
  402c81:	3a 20 44 
  402c84:	48 89 45 00          	mov    %rax,0x0(%rbp)
  402c88:	48 b8 4e 53 20 69 73 	movabs $0x6e7520736920534e,%rax
  402c8f:	20 75 6e 
  402c92:	48 89 45 08          	mov    %rax,0x8(%rbp)
  402c96:	48 b8 61 62 6c 65 20 	movabs $0x206f7420656c6261,%rax
  402c9d:	74 6f 20 
  402ca0:	48 89 45 10          	mov    %rax,0x10(%rbp)
  402ca4:	48 b8 72 65 73 6f 6c 	movabs $0x2065766c6f736572,%rax
  402cab:	76 65 20 
  402cae:	48 89 45 18          	mov    %rax,0x18(%rbp)
  402cb2:	48 b8 73 65 72 76 65 	movabs $0x6120726576726573,%rax
  402cb9:	72 20 61 
  402cbc:	48 89 45 20          	mov    %rax,0x20(%rbp)
  402cc0:	c7 45 28 64 64 72 65 	movl   $0x65726464,0x28(%rbp)
  402cc7:	66 c7 45 2c 73 73    	movw   $0x7373,0x2c(%rbp)
  402ccd:	c6 45 2e 00          	movb   $0x0,0x2e(%rbp)
  402cd1:	89 df                	mov    %ebx,%edi
  402cd3:	e8 f8 df ff ff       	callq  400cd0 <close@plt>
  402cd8:	b8 ff ff ff ff       	mov    $0xffffffff,%eax
  402cdd:	e9 b1 00 00 00       	jmpq   402d93 <init_driver+0x1d7>
  402ce2:	48 c7 04 24 00 00 00 	movq   $0x0,(%rsp)
  402ce9:	00 
  402cea:	48 c7 44 24 08 00 00 	movq   $0x0,0x8(%rsp)
  402cf1:	00 00 
  402cf3:	66 c7 04 24 02 00    	movw   $0x2,(%rsp)
  402cf9:	48 63 50 14          	movslq 0x14(%rax),%rdx
  402cfd:	48 8b 40 18          	mov    0x18(%rax),%rax
  402d01:	48 8b 30             	mov    (%rax),%rsi
  402d04:	48 8d 7c 24 04       	lea    0x4(%rsp),%rdi
  402d09:	b9 0c 00 00 00       	mov    $0xc,%ecx
  402d0e:	e8 0d e0 ff ff       	callq  400d20 <__memmove_chk@plt>
  402d13:	66 c7 44 24 02 27 17 	movw   $0x1727,0x2(%rsp)
  402d1a:	ba 10 00 00 00       	mov    $0x10,%edx
  402d1f:	48 89 e6             	mov    %rsp,%rsi
  402d22:	89 df                	mov    %ebx,%edi
  402d24:	e8 d7 e0 ff ff       	callq  400e00 <connect@plt>
  402d29:	85 c0                	test   %eax,%eax
  402d2b:	79 50                	jns    402d7d <init_driver+0x1c1>
  402d2d:	48 b8 45 72 72 6f 72 	movabs $0x55203a726f727245,%rax
  402d34:	3a 20 55 
  402d37:	48 89 45 00          	mov    %rax,0x0(%rbp)
  402d3b:	48 b8 6e 61 62 6c 65 	movabs $0x6f7420656c62616e,%rax
  402d42:	20 74 6f 
  402d45:	48 89 45 08          	mov    %rax,0x8(%rbp)
  402d49:	48 b8 20 63 6f 6e 6e 	movabs $0x7463656e6e6f6320,%rax
  402d50:	65 63 74 
  402d53:	48 89 45 10          	mov    %rax,0x10(%rbp)
  402d57:	48 b8 20 74 6f 20 73 	movabs $0x76726573206f7420,%rax
  402d5e:	65 72 76 
  402d61:	48 89 45 18          	mov    %rax,0x18(%rbp)
  402d65:	66 c7 45 20 65 72    	movw   $0x7265,0x20(%rbp)
  402d6b:	c6 45 22 00          	movb   $0x0,0x22(%rbp)
  402d6f:	89 df                	mov    %ebx,%edi
  402d71:	e8 5a df ff ff       	callq  400cd0 <close@plt>
  402d76:	b8 ff ff ff ff       	mov    $0xffffffff,%eax
  402d7b:	eb 16                	jmp    402d93 <init_driver+0x1d7>
  402d7d:	89 df                	mov    %ebx,%edi
  402d7f:	e8 4c df ff ff       	callq  400cd0 <close@plt>
  402d84:	66 c7 45 00 4f 4b    	movw   $0x4b4f,0x0(%rbp)
  402d8a:	c6 45 02 00          	movb   $0x0,0x2(%rbp)
  402d8e:	b8 00 00 00 00       	mov    $0x0,%eax
  402d93:	48 8b 4c 24 18       	mov    0x18(%rsp),%rcx
  402d98:	64 48 33 0c 25 28 00 	xor    %fs:0x28,%rcx
  402d9f:	00 00 
  402da1:	74 05                	je     402da8 <init_driver+0x1ec>
  402da3:	e8 e8 de ff ff       	callq  400c90 <__stack_chk_fail@plt>
  402da8:	48 83 c4 28          	add    $0x28,%rsp
  402dac:	5b                   	pop    %rbx
  402dad:	5d                   	pop    %rbp
  402dae:	c3                   	retq   

0000000000402daf <driver_post>:
  402daf:	53                   	push   %rbx
  402db0:	48 83 ec 10          	sub    $0x10,%rsp
  402db4:	4c 89 cb             	mov    %r9,%rbx
  402db7:	45 85 c0             	test   %r8d,%r8d
  402dba:	74 27                	je     402de3 <driver_post+0x34>
  402dbc:	48 89 ca             	mov    %rcx,%rdx
  402dbf:	be e4 36 40 00       	mov    $0x4036e4,%esi
  402dc4:	bf 01 00 00 00       	mov    $0x1,%edi
  402dc9:	b8 00 00 00 00       	mov    $0x0,%eax
  402dce:	e8 cd df ff ff       	callq  400da0 <__printf_chk@plt>
  402dd3:	66 c7 03 4f 4b       	movw   $0x4b4f,(%rbx)
  402dd8:	c6 43 02 00          	movb   $0x0,0x2(%rbx)
  402ddc:	b8 00 00 00 00       	mov    $0x0,%eax
  402de1:	eb 39                	jmp    402e1c <driver_post+0x6d>
  402de3:	48 85 ff             	test   %rdi,%rdi
  402de6:	74 26                	je     402e0e <driver_post+0x5f>
  402de8:	80 3f 00             	cmpb   $0x0,(%rdi)
  402deb:	74 21                	je     402e0e <driver_post+0x5f>
  402ded:	4c 89 0c 24          	mov    %r9,(%rsp)
  402df1:	49 89 c9             	mov    %rcx,%r9
  402df4:	49 89 d0             	mov    %rdx,%r8
  402df7:	48 89 f9             	mov    %rdi,%rcx
  402dfa:	48 89 f2             	mov    %rsi,%rdx
  402dfd:	be 17 27 00 00       	mov    $0x2717,%esi
  402e02:	bf d5 36 40 00       	mov    $0x4036d5,%edi
  402e07:	e8 58 f6 ff ff       	callq  402464 <submitr>
  402e0c:	eb 0e                	jmp    402e1c <driver_post+0x6d>
  402e0e:	66 c7 03 4f 4b       	movw   $0x4b4f,(%rbx)
  402e13:	c6 43 02 00          	movb   $0x0,0x2(%rbx)
  402e17:	b8 00 00 00 00       	mov    $0x0,%eax
  402e1c:	48 83 c4 10          	add    $0x10,%rsp
  402e20:	5b                   	pop    %rbx
  402e21:	c3                   	retq   
  402e22:	90                   	nop
  402e23:	90                   	nop

0000000000402e24 <check>:
  402e24:	89 f8                	mov    %edi,%eax
  402e26:	c1 e8 1c             	shr    $0x1c,%eax
  402e29:	85 c0                	test   %eax,%eax
  402e2b:	74 1d                	je     402e4a <check+0x26>
  402e2d:	b9 00 00 00 00       	mov    $0x0,%ecx
  402e32:	eb 0b                	jmp    402e3f <check+0x1b>
  402e34:	89 f8                	mov    %edi,%eax
  402e36:	d3 e8                	shr    %cl,%eax
  402e38:	3c 0a                	cmp    $0xa,%al
  402e3a:	74 14                	je     402e50 <check+0x2c>
  402e3c:	83 c1 08             	add    $0x8,%ecx
  402e3f:	83 f9 1f             	cmp    $0x1f,%ecx
  402e42:	7e f0                	jle    402e34 <check+0x10>
  402e44:	b8 01 00 00 00       	mov    $0x1,%eax
  402e49:	c3                   	retq   
  402e4a:	b8 00 00 00 00       	mov    $0x0,%eax
  402e4f:	c3                   	retq   
  402e50:	b8 00 00 00 00       	mov    $0x0,%eax
  402e55:	c3                   	retq   

0000000000402e56 <gencookie>:
  402e56:	53                   	push   %rbx
  402e57:	83 c7 01             	add    $0x1,%edi
  402e5a:	e8 e1 dd ff ff       	callq  400c40 <srandom@plt>
  402e5f:	e8 fc de ff ff       	callq  400d60 <random@plt>
  402e64:	89 c3                	mov    %eax,%ebx
  402e66:	89 c7                	mov    %eax,%edi
  402e68:	e8 b7 ff ff ff       	callq  402e24 <check>
  402e6d:	85 c0                	test   %eax,%eax
  402e6f:	74 ee                	je     402e5f <gencookie+0x9>
  402e71:	89 d8                	mov    %ebx,%eax
  402e73:	5b                   	pop    %rbx
  402e74:	c3                   	retq   
  402e75:	90                   	nop
  402e76:	90                   	nop
  402e77:	90                   	nop
  402e78:	90                   	nop
  402e79:	90                   	nop
  402e7a:	90                   	nop
  402e7b:	90                   	nop
  402e7c:	90                   	nop
  402e7d:	90                   	nop
  402e7e:	90                   	nop
  402e7f:	90                   	nop

0000000000402e80 <__libc_csu_init>:
  402e80:	48 89 6c 24 d8       	mov    %rbp,-0x28(%rsp)
  402e85:	4c 89 64 24 e0       	mov    %r12,-0x20(%rsp)
  402e8a:	48 8d 2d 6f 1f 20 00 	lea    0x201f6f(%rip),%rbp        # 604e00 <__do_global_dtors_aux_fini_array_entry>
  402e91:	4c 8d 25 60 1f 20 00 	lea    0x201f60(%rip),%r12        # 604df8 <__frame_dummy_init_array_entry>
  402e98:	4c 89 6c 24 e8       	mov    %r13,-0x18(%rsp)
  402e9d:	4c 89 74 24 f0       	mov    %r14,-0x10(%rsp)
  402ea2:	4c 89 7c 24 f8       	mov    %r15,-0x8(%rsp)
  402ea7:	48 89 5c 24 d0       	mov    %rbx,-0x30(%rsp)
  402eac:	48 83 ec 38          	sub    $0x38,%rsp
  402eb0:	4c 29 e5             	sub    %r12,%rbp
  402eb3:	41 89 fd             	mov    %edi,%r13d
  402eb6:	49 89 f6             	mov    %rsi,%r14
  402eb9:	48 c1 fd 03          	sar    $0x3,%rbp
  402ebd:	49 89 d7             	mov    %rdx,%r15
  402ec0:	e8 43 dd ff ff       	callq  400c08 <_init>
  402ec5:	48 85 ed             	test   %rbp,%rbp
  402ec8:	74 1c                	je     402ee6 <__libc_csu_init+0x66>
  402eca:	31 db                	xor    %ebx,%ebx
  402ecc:	0f 1f 40 00          	nopl   0x0(%rax)
  402ed0:	4c 89 fa             	mov    %r15,%rdx
  402ed3:	4c 89 f6             	mov    %r14,%rsi
  402ed6:	44 89 ef             	mov    %r13d,%edi
  402ed9:	41 ff 14 dc          	callq  *(%r12,%rbx,8)
  402edd:	48 83 c3 01          	add    $0x1,%rbx
  402ee1:	48 39 eb             	cmp    %rbp,%rbx
  402ee4:	75 ea                	jne    402ed0 <__libc_csu_init+0x50>
  402ee6:	48 8b 5c 24 08       	mov    0x8(%rsp),%rbx
  402eeb:	48 8b 6c 24 10       	mov    0x10(%rsp),%rbp
  402ef0:	4c 8b 64 24 18       	mov    0x18(%rsp),%r12
  402ef5:	4c 8b 6c 24 20       	mov    0x20(%rsp),%r13
  402efa:	4c 8b 74 24 28       	mov    0x28(%rsp),%r14
  402eff:	4c 8b 7c 24 30       	mov    0x30(%rsp),%r15
  402f04:	48 83 c4 38          	add    $0x38,%rsp
  402f08:	c3                   	retq   
  402f09:	0f 1f 80 00 00 00 00 	nopl   0x0(%rax)

0000000000402f10 <__libc_csu_fini>:
  402f10:	f3 c3                	repz retq 
  402f12:	90                   	nop
  402f13:	90                   	nop

Disassembly of section .fini:

0000000000402f14 <_fini>:
  402f14:	48 83 ec 08          	sub    $0x8,%rsp
  402f18:	48 83 c4 08          	add    $0x8,%rsp
  402f1c:	c3                   	retq   
